ccopy_reg
_reconstructor
p0
(cpandas.core.frame
DataFrame
p1
c__builtin__
object
p2
Ntp3
Rp4
(dp5
S'_metadata'
p6
(lp7
sS'_typ'
p8
S'dataframe'
p9
sS'_data'
p10
g0
(cpandas.core.internals
BlockManager
p11
g2
Ntp12
Rp13
((lp14
cpandas.core.indexes.base
_new_Index
p15
(cpandas.core.indexes.base
Index
p16
(dp17
S'data'
p18
cnumpy.core.multiarray
_reconstruct
p19
(cnumpy
ndarray
p20
(I0
tp21
S'b'
p22
tp23
Rp24
(I1
(I38
tp25
cnumpy
dtype
p26
(S'O8'
p27
I0
I1
tp28
Rp29
(I3
S'|'
p30
NNNI-1
I-1
I63
tp31
bI00
(lp32
S'year'
p33
aS'type'
p34
aS'procOriginal'
p35
aS'proc'
p36
aS'proc_s0'
p37
aS'cat'
p38
aS'inputWSFile'
p39
aS'nominalDataName'
p40
aS'modelWSFile'
p41
aS'model'
p42
aS'rate'
p43
aS'nominal_yield'
p44
aS'sumw2'
p45
aS'nominal_yield_COWCorr'
p46
aS'weight_electron_veto_sf_Diphoton_Photon_up_yield'
p47
aS'weight_electron_veto_sf_Diphoton_Photon_down_yield'
p48
aS'weight_electron_id_sf_SelectedElectron_up_yield'
p49
aS'weight_electron_id_sf_SelectedElectron_down_yield'
p50
aS'weight_muon_id_sfSTAT_SelectedMuon_up_yield'
p51
aS'weight_muon_id_sfSTAT_SelectedMuon_down_yield'
p52
aS'weight_muon_id_sfSYS_SelectedMuon_up_yield'
p53
aS'weight_muon_id_sfSYS_SelectedMuon_down_yield'
p54
aS'weight_trigger_sf_up_yield'
p55
aS'weight_trigger_sf_down_yield'
p56
aS'JER_up_yield'
p57
aS'JER_down_yield'
p58
aS'JES_up_yield'
p59
aS'JES_down_yield'
p60
aS'MET_JER_up_yield'
p61
aS'MET_JER_down_yield'
p62
aS'MET_JES_up_yield'
p63
aS'MET_JES_down_yield'
p64
aS'MET_Unclustered_up_yield'
p65
aS'MET_Unclustered_down_yield'
p66
aS'Muon_pt_up_yield'
p67
aS'Muon_pt_down_yield'
p68
aS'Tau_pt_up_yield'
p69
aS'Tau_pt_down_yield'
p70
atp71
bsS'name'
p72
Nstp73
Rp74
ag15
(cpandas.core.indexes.numeric
Int64Index
p75
(dp76
g18
g19
(g20
(I0
tp77
g22
tp78
Rp79
(I1
(I17
tp80
g26
(S'i8'
p81
I0
I1
tp82
Rp83
(I3
S'<'
p84
NNNI-1
I-1
I0
tp85
bI00
S'\x00\x00\x00\x00\x00\x00\x00\x00\x01\x00\x00\x00\x00\x00\x00\x00\x02\x00\x00\x00\x00\x00\x00\x00\x03\x00\x00\x00\x00\x00\x00\x00\x04\x00\x00\x00\x00\x00\x00\x00\x05\x00\x00\x00\x00\x00\x00\x00\x06\x00\x00\x00\x00\x00\x00\x00\x07\x00\x00\x00\x00\x00\x00\x00\x08\x00\x00\x00\x00\x00\x00\x00\t\x00\x00\x00\x00\x00\x00\x00\n\x00\x00\x00\x00\x00\x00\x00\x0b\x00\x00\x00\x00\x00\x00\x00\x0c\x00\x00\x00\x00\x00\x00\x00\r\x00\x00\x00\x00\x00\x00\x00\x0e\x00\x00\x00\x00\x00\x00\x00\x0f\x00\x00\x00\x00\x00\x00\x00\x10\x00\x00\x00\x00\x00\x00\x00'
p86
tp87
bsg72
Nstp88
Rp89
a(lp90
g19
(g20
(I0
tp91
g22
tp92
Rp93
(I1
(I38
I17
tp94
g29
I00
(lp95
S'2016'
p96
ag96
ag96
ag96
ag96
aS'2017'
p97
ag97
ag97
ag97
ag97
aS'2018'
p98
ag98
ag98
ag98
ag98
aS'merged'
p99
ag99
aS'sig'
p100
ag100
ag100
ag100
ag100
ag100
ag100
ag100
ag100
ag100
ag100
ag100
ag100
ag100
ag100
aS'bkg'
p101
ag18
aS'VBFH'
p102
aS'VH'
p103
aS'ggH'
p104
aS'ggHHbm5'
p105
aS'ttH'
p106
ag102
ag103
ag104
ag105
ag106
ag102
ag103
ag104
ag105
ag106
aS'bkg_mass'
p107
aS'data_obs'
p108
aS'VBFH_2016_hgg'
p109
aS'VH_2016_hgg'
p110
aS'ggH_2016_hgg'
p111
aS'ggHHbm5_2016_hgg'
p112
aS'ttH_2016_hgg'
p113
aS'VBFH_2017_hgg'
p114
aS'VH_2017_hgg'
p115
aS'ggH_2017_hgg'
p116
aS'ggHHbm5_2017_hgg'
p117
aS'ttH_2017_hgg'
p118
aS'VBFH_2018_hgg'
p119
aS'VH_2018_hgg'
p120
aS'ggH_2018_hgg'
p121
aS'ggHHbm5_2018_hgg'
p122
aS'ttH_2018_hgg'
p123
ag107
ag108
ag102
ag103
ag104
ag105
ag106
ag102
ag103
ag104
ag105
ag106
ag102
ag103
ag104
ag105
ag106
aS'-'
p124
ag124
aS'SR1'
p125
ag125
ag125
ag125
ag125
ag125
ag125
ag125
ag125
ag125
ag125
ag125
ag125
ag125
ag125
ag125
ag125
aS'/home/users/fsetti/HHggTauTau/coupling_scan/CMSSW_10_2_13/src/flashggFinalFit/files_systs/18Apr2022_EFT//ws_signal_2016/output_VBFH_M125_13TeV_pythia8_VBFH.root'
p126
aS'/home/users/fsetti/HHggTauTau/coupling_scan/CMSSW_10_2_13/src/flashggFinalFit/files_systs/18Apr2022_EFT//ws_signal_2016/output_VH_M125_13TeV_pythia8_VH.root'
p127
aS'/home/users/fsetti/HHggTauTau/coupling_scan/CMSSW_10_2_13/src/flashggFinalFit/files_systs/18Apr2022_EFT//ws_signal_2016/output_ggH_M125_13TeV_pythia8_ggH.root'
p128
aS'/home/users/fsetti/HHggTauTau/coupling_scan/CMSSW_10_2_13/src/flashggFinalFit/files_systs/18Apr2022_EFT//ws_signal_2016/output_ggHHbm5_M125_13TeV_pythia8_ggHHbm5.root'
p129
aS'/home/users/fsetti/HHggTauTau/coupling_scan/CMSSW_10_2_13/src/flashggFinalFit/files_systs/18Apr2022_EFT//ws_signal_2016/output_ttH_M125_13TeV_pythia8_ttH.root'
p130
aS'/home/users/fsetti/HHggTauTau/coupling_scan/CMSSW_10_2_13/src/flashggFinalFit/files_systs/18Apr2022_EFT//ws_signal_2017/output_VBFH_M125_13TeV_pythia8_VBFH.root'
p131
aS'/home/users/fsetti/HHggTauTau/coupling_scan/CMSSW_10_2_13/src/flashggFinalFit/files_systs/18Apr2022_EFT//ws_signal_2017/output_VH_M125_13TeV_pythia8_VH.root'
p132
aS'/home/users/fsetti/HHggTauTau/coupling_scan/CMSSW_10_2_13/src/flashggFinalFit/files_systs/18Apr2022_EFT//ws_signal_2017/output_ggH_M125_13TeV_pythia8_ggH.root'
p133
aS'/home/users/fsetti/HHggTauTau/coupling_scan/CMSSW_10_2_13/src/flashggFinalFit/files_systs/18Apr2022_EFT//ws_signal_2017/output_ggHHbm5_M125_13TeV_pythia8_ggHHbm5.root'
p134
aS'/home/users/fsetti/HHggTauTau/coupling_scan/CMSSW_10_2_13/src/flashggFinalFit/files_systs/18Apr2022_EFT//ws_signal_2017/output_ttH_M125_13TeV_pythia8_ttH.root'
p135
aS'/home/users/fsetti/HHggTauTau/coupling_scan/CMSSW_10_2_13/src/flashggFinalFit/files_systs/18Apr2022_EFT//ws_signal_2018/output_VBFH_M125_13TeV_pythia8_VBFH.root'
p136
aS'/home/users/fsetti/HHggTauTau/coupling_scan/CMSSW_10_2_13/src/flashggFinalFit/files_systs/18Apr2022_EFT//ws_signal_2018/output_VH_M125_13TeV_pythia8_VH.root'
p137
aS'/home/users/fsetti/HHggTauTau/coupling_scan/CMSSW_10_2_13/src/flashggFinalFit/files_systs/18Apr2022_EFT//ws_signal_2018/output_ggH_M125_13TeV_pythia8_ggH.root'
p138
aS'/home/users/fsetti/HHggTauTau/coupling_scan/CMSSW_10_2_13/src/flashggFinalFit/files_systs/18Apr2022_EFT//ws_signal_2018/output_ggHHbm5_M125_13TeV_pythia8_ggHHbm5.root'
p139
aS'/home/users/fsetti/HHggTauTau/coupling_scan/CMSSW_10_2_13/src/flashggFinalFit/files_systs/18Apr2022_EFT//ws_signal_2018/output_ttH_M125_13TeV_pythia8_ttH.root'
p140
ag124
ag124
aS'VBFH_125_13TeV_SR1'
p141
aS'VH_125_13TeV_SR1'
p142
aS'ggH_125_13TeV_SR1'
p143
aS'ggHHbm5_125_13TeV_SR1'
p144
aS'ttH_125_13TeV_SR1'
p145
aS'VBFH_125_13TeV_SR1'
p146
aS'VH_125_13TeV_SR1'
p147
aS'ggH_125_13TeV_SR1'
p148
aS'ggHHbm5_125_13TeV_SR1'
p149
aS'ttH_125_13TeV_SR1'
p150
aS'VBFH_125_13TeV_SR1'
p151
aS'VH_125_13TeV_SR1'
p152
aS'ggH_125_13TeV_SR1'
p153
aS'ggHHbm5_125_13TeV_SR1'
p154
aS'ttH_125_13TeV_SR1'
p155
ag124
ag124
aS'./Models/signal/CMS-HGG_sigfit_packaged_SR1.root'
p156
aS'./Models/signal/CMS-HGG_sigfit_packaged_SR1.root'
p157
aS'./Models/signal/CMS-HGG_sigfit_packaged_SR1.root'
p158
aS'./Models/signal/CMS-HGG_sigfit_packaged_SR1.root'
p159
aS'./Models/signal/CMS-HGG_sigfit_packaged_SR1.root'
p160
aS'./Models/signal/CMS-HGG_sigfit_packaged_SR1.root'
p161
aS'./Models/signal/CMS-HGG_sigfit_packaged_SR1.root'
p162
aS'./Models/signal/CMS-HGG_sigfit_packaged_SR1.root'
p163
aS'./Models/signal/CMS-HGG_sigfit_packaged_SR1.root'
p164
aS'./Models/signal/CMS-HGG_sigfit_packaged_SR1.root'
p165
aS'./Models/signal/CMS-HGG_sigfit_packaged_SR1.root'
p166
aS'./Models/signal/CMS-HGG_sigfit_packaged_SR1.root'
p167
aS'./Models/signal/CMS-HGG_sigfit_packaged_SR1.root'
p168
aS'./Models/signal/CMS-HGG_sigfit_packaged_SR1.root'
p169
aS'./Models/signal/CMS-HGG_sigfit_packaged_SR1.root'
p170
aS'./Models/background/CMS-HGG_multipdf_SR1.root'
p171
ag171
aS'wsig_13TeV:hggpdfsmrel_VBFH_2016_SR1_13TeV'
p172
aS'wsig_13TeV:hggpdfsmrel_VH_2016_SR1_13TeV'
p173
aS'wsig_13TeV:hggpdfsmrel_ggH_2016_SR1_13TeV'
p174
aS'wsig_13TeV:hggpdfsmrel_ggHHbm5_2016_SR1_13TeV'
p175
aS'wsig_13TeV:hggpdfsmrel_ttH_2016_SR1_13TeV'
p176
aS'wsig_13TeV:hggpdfsmrel_VBFH_2017_SR1_13TeV'
p177
aS'wsig_13TeV:hggpdfsmrel_VH_2017_SR1_13TeV'
p178
aS'wsig_13TeV:hggpdfsmrel_ggH_2017_SR1_13TeV'
p179
aS'wsig_13TeV:hggpdfsmrel_ggHHbm5_2017_SR1_13TeV'
p180
aS'wsig_13TeV:hggpdfsmrel_ttH_2017_SR1_13TeV'
p181
aS'wsig_13TeV:hggpdfsmrel_VBFH_2018_SR1_13TeV'
p182
aS'wsig_13TeV:hggpdfsmrel_VH_2018_SR1_13TeV'
p183
aS'wsig_13TeV:hggpdfsmrel_ggH_2018_SR1_13TeV'
p184
aS'wsig_13TeV:hggpdfsmrel_ggHHbm5_2018_SR1_13TeV'
p185
aS'wsig_13TeV:hggpdfsmrel_ttH_2018_SR1_13TeV'
p186
aS'multipdf:CMS_hgg_SR1_13TeV_bkgshape'
p187
aS'multipdf:roohist_data_mass_SR1'
p188
aI1000
aI1000
aI1000
aI1000
aI1000
aI1000
aI1000
aI1000
aI1000
aI1000
aI1000
aI1000
aI1000
aI1000
aI1000
aF1.0
aI-1
aF0.00867361905815019
aF0.25692169275359356
aF0.020775708380597984
aF0.10789824328160548
aF0.05807235691003624
aF0.010083174182210716
aF0.3242715385503911
aF0.000975449050788074
aF0.11670762126392155
aF0.05457586703646484
aF0.010119524326577188
aF0.4546704593784177
aF0.006552064268465039
aF0.18209573413442268
aF0.09527308406460822
ag124
ag124
aF5.306334329129123e-06
aF0.00014903782085226553
aF4.5044012958528765e-05
aF1.4699576435176401e-07
aF2.351814608058142e-05
aF1.2056895187973275e-05
aF0.00019529497598485236
aF2.3177234976108e-05
aF1.6480764857234913e-07
aF2.6904992657734306e-05
aF1.794612591445744e-05
aF0.0004094649977407913
aF0.00022208017428089103
aF3.7837762332453796e-07
aF5.71249260838694e-05
ag124
ag124
aF0.00867361905815019
aF0.25692169275359356
aF0.020775708380597984
aF0.10789824328160548
aF0.05807235691003624
aF0.010083174182210716
aF0.3242715385503911
aF0.000975449050788074
aF0.11670762126392155
aF0.05457586703646484
aF0.010119524326577188
aF0.4546704593784177
aF0.006552064268465039
aF0.18209573413442268
aF0.09527308406460822
ag124
ag124
aF0.00863119470856413
aF0.25509848508166105
aF0.020604482970481175
aF0.10789824328160548
aF0.05767923960398214
aF0.009903594847609215
aF0.31818201416429875
aF0.0009544843466541305
aF0.11670762126392155
aF0.05360416591475359
aF0.009960715559731041
aF0.4467389909953215
aF0.006518154499911133
aF0.18209573413442268
aF0.09367476903275192
ag124
ag124
aF0.008612757537013684
aF0.25413611253938
aF0.02053059350001194
aF0.10771644501058743
aF0.05747045273844037
aF0.00987047025280716
aF0.3164447007826876
aF0.0009481156074321834
aF0.11642394517374217
aF0.05332392791349183
aF0.009934980224920101
aF0.44530399030285917
aF0.006520443677209139
aF0.18183197900499695
aF0.0933946743695084
ag124
ag124
aF0.008662034687213131
aF0.2566519722876953
aF0.020775708380597984
aF0.10789824328160548
aF0.057811591762521805
aF0.0100931443582742
aF0.32343720866163767
aF0.0009728251161164898
aF0.11670762126392155
aF0.05415724681395178
aF0.010119524326577188
aF0.45364252656315535
aF0.006552064268465039
aF0.18209573413442268
aF0.09439823068906976
ag124
ag124
aF0.008687469325189906
aF0.25578432507658494
aF0.020775708380597984
aF0.10762450208713452
aF0.05712347722849142
aF0.010123768420445585
aF0.3226511891193865
aF0.0010999638205639022
aF0.116352744216079
aF0.05363790533353483
aF0.010119524326577188
aF0.4524577747672737
aF0.006552064268465039
aF0.1816161753067171
aF0.09363990646106901
ag124
ag124
aF0.00867350647671971
aF0.2567832102375131
aF0.020762139750860397
aF0.10789824328160548
aF0.05799759410046767
aF0.010083052726215536
aF0.3244590399446545
aF0.000975449050788074
aF0.11670762126392155
aF0.05470172973233025
aF0.010121502885798415
aF0.4544952635318914
aF0.006567031900063002
aF0.18209573413442268
aF0.09511791722023123
ag124
ag124
aF0.008673758519547551
aF0.25670551818083354
aF0.020754679994076305
aF0.10786811432936401
aF0.057954350127006934
aF0.01008332463706578
aF0.32435063370154005
aF0.000975449050788074
aF0.1166754566893594
aF0.05463545109697816
aF0.010119563834929053
aF0.4544173051042203
aF0.0065523631457740485
aF0.18205851102236612
aF0.09503335218717258
ag124
ag124
aF0.008673547045913664
aF0.25695418325099395
aF0.020777471766605177
aF0.10789824328160548
aF0.05807989466130586
aF0.010083096493396362
aF0.32463491310246495
aF0.000975449050788074
aF0.11670762126392155
aF0.054811812582459374
aF0.010124606243037194
aF0.45467271063823184
aF0.006590508532639172
aF0.18209573413442268
aF0.09532500167246376
ag124
ag124
aF0.008673717950353599
aF0.2565345520275804
aF0.020739356196508657
aF0.10776866069463338
aF0.05787215337852372
aF0.010083280869884956
aF0.3241748652173434
aF0.000975449050788074
aF0.11657336065219315
aF0.05452547965636685
aF0.010116460525290697
aF0.4542397981807197
aF0.006528886873291025
aF0.18187244903242022
aF0.09482661310431999
ag124
ag124
aF0.008617312835168773
aF0.25457065543173724
aF0.020659978993073605
aF0.10789824328160548
aF0.05769171165061443
aF0.009964380435508156
aF0.3203531984085538
aF0.0009631888548859804
aF0.11670762126392155
aF0.05394381292266867
aF0.010026740829103997
aF0.45034703003621757
aF0.006508880906468678
aF0.18209573413442268
aF0.09441680480471593
ag124
ag124
aF0.00858365827467188
aF0.25344960353389717
aF0.02057719057505468
aF0.1076730178240096
aF0.05746561951155537
aF0.00991685904334666
aF0.3186872060255198
aF0.0009589676717823644
aF0.11642538895255132
aF0.05367779258243531
aF0.009983509157880734
aF0.4483322181021743
aF0.0064840477189157504
aF0.1817052389101287
aF0.09401202111865813
ag124
ag124
aF0.00867361905815019
aF0.2569216927535934
aF0.02077570838059798
aF0.10789494848943443
aF0.057804563874383035
aF0.010083174182210717
aF0.32463818568417724
aF0.000975449050788074
aF0.11675458282931761
aF0.054408521751955444
aF0.010754793110848307
aF0.4541744817930778
aF0.006552064268465039
aF0.18208513182778693
aF0.0947714167122013
ag124
ag124
aF0.00867361905815019
aF0.25622884067039847
aF0.02077570838059798
aF0.10790450366810031
aF0.05781553233584421
aF0.010083174182210717
aF0.3238605079936095
aF0.000975449050788074
aF0.116660800623984
aF0.05442068342888973
aF0.010119524326577188
aF0.45516787483738447
aF0.006552064268465039
aF0.18213753978885552
aF0.09552377601499171
ag124
ag124
aF0.00867361905815019
aF0.25628059824327304
aF0.02077570838059798
aF0.10777054978201875
aF0.05777774447616085
aF0.010083174182210717
aF0.32427153855039065
aF0.000975449050788074
aF0.11661600553870195
aF0.05440352159045718
aF0.010119524326577188
aF0.454115948913744
aF0.006552064268465039
aF0.18179434048597087
aF0.09402311039801704
ag124
ag124
aF0.00867361905815019
aF0.25697428596436656
aF0.02077570838059798
aF0.10804994284710755
aF0.05821626751336068
aF0.010083174182210717
aF0.3238959570051037
aF0.000975449050788074
aF0.11681619944666365
aF0.054093770831461475
aF0.010754793110848307
aF0.45513338088366095
aF0.006552064268465039
aF0.18242374244230922
aF0.0946334719478376
ag124
ag124
aF0.00938788577582108
aF0.2568130456229796
aF0.02077570838059798
aF0.10773266611657913
aF0.05892590939598668
aF0.010891122146835486
aF0.32424910489049086
aF0.000975449050788074
aF0.1167606884371724
aF0.05428544931116509
aF0.008436555697041125
aF0.4602867587143176
aF0.006552064268465039
aF0.18173854347708007
aF0.09531494534261396
ag124
ag124
aF0.010098276494173603
aF0.2561359647448679
aF0.02077570838059798
aF0.10780654721343255
aF0.05978243936001292
aF0.011250991001947422
aF0.3239809869434512
aF0.0006129912070834062
aF0.11672762391860984
aF0.05495162676556319
aF0.010080881333556299
aF0.4567132808336323
aF0.0007429156482104795
aF0.18179495268726784
aF0.09641417948811097
ag124
ag124
aF0.00877881177058402
aF0.2580231690137116
aF0.02077570838059798
aF0.10752045809464411
aF0.05837936873313914
aF0.009758272614152066
aF0.3202869490173411
aF0.000975449050788074
aF0.1166743301643809
aF0.05448250153428094
aF0.010036748316263028
aF0.45259567546855983
aF0.006552064268465039
aF0.18126738086064065
aF0.09592277067704359
ag124
ag124
aF0.009131921179554183
aF0.2594905989628281
aF0.02445485229022066
aF0.10801047668582671
aF0.059046008456369384
aF0.010705742796060987
aF0.3249970808392564
aF0.0050543885492482475
aF0.11680509607827047
aF0.05436811722614618
aF0.010080881333556299
aF0.46220755279911807
aF0.006552064268465039
aF0.18214671957698403
aF0.0939463103502114
ag124
ag124
aF0.007364107766043307
aF0.25365020438814556
aF0.02807951670436883
aF0.10787788234969735
aF0.059295745617700735
aF0.008712345486487711
aF0.32334330904730946
aF0.007956381647860276
aF0.11673508091002137
aF0.052584958236678116
aF0.008496003216288744
aF0.4605684317508866
aF0.0007429156482104795
aF0.1819017398821099
aF0.09556422281221148
ag124
ag124
aF0.009348629939696127
aF0.2558743635619092
aF0.02065125127363182
aF0.10769280021710524
aF0.058128397078078035
aF0.010402927474563931
aF0.32217126830829435
aF0.000975449050788074
aF0.11670555938521526
aF0.05439499452325055
aF0.010293099504048461
aF0.45332305682010937
aF0.006552064268465039
aF0.181600487885853
aF0.09221992421082983
ag124
ag124
aF0.00867361905815019
aF0.25743166930845157
aF0.02077570838059798
aF0.1078996344836732
aF0.0580723569100362
aF0.010083174182210717
aF0.32427153855039065
aF0.000975449050788074
aF0.11670762126392041
aF0.05457586703646486
aF0.010119524326577188
aF0.4541533090052534
aF0.006552064268465039
aF0.18209549735993863
aF0.09527308406460813
ag124
ag124
aF0.00867361905815019
aF0.2569216927535934
aF0.02077570838059798
aF0.10790049716484677
aF0.0580723569100362
aF0.010083174182210717
aF0.32427153855039065
aF0.000975449050788074
aF0.11670888419893981
aF0.054742659846060526
aF0.010119524326577188
aF0.45417089102430996
aF0.006552064268465039
aF0.18209794908761592
aF0.0954938588153862
ag124
ag124
aF0.00867361905815019
aF0.2563119315965459
aF0.02077570838059798
aF0.10788237823675137
aF0.057800280792824864
aF0.010083174182210717
aF0.3240851655039396
aF0.000975449050788074
aF0.11674960032115614
aF0.05474923388577453
aF0.010119524326577188
aF0.45573387678412697
aF0.006552064268465039
aF0.1820322468276411
aF0.09527308406460813
ag124
ag124
aF0.00867361905815019
aF0.25497754964922
aF0.02077570838059798
aF0.10787773924907759
aF0.057778327340807165
aF0.010083174182210717
aF0.32466610607116725
aF0.000975449050788074
aF0.11661768762481908
aF0.05468174655075809
aF0.010119524326577188
aF0.4546908425778699
aF0.006552064268465039
aF0.18209569168086692
aF0.09524401266110746
ag124
ag124
atp189
ba(lp190
g15
(g16
(dp191
g18
g19
(g20
(I0
tp192
g22
tp193
Rp194
(I1
(I38
tp195
g29
I00
(lp196
g33
ag34
ag35
ag36
ag37
ag38
ag39
ag40
ag41
ag42
ag43
ag44
ag45
ag46
ag47
ag48
ag49
ag50
ag51
ag52
ag53
ag54
ag55
ag56
ag57
ag58
ag59
ag60
ag61
ag62
ag63
ag64
ag65
ag66
ag67
ag68
ag69
ag70
atp197
bsg72
Nstp198
Rp199
a(dp200
S'0.14.1'
p201
(dp202
S'axes'
p203
g14
sS'blocks'
p204
(lp205
(dp206
S'mgr_locs'
p207
c__builtin__
slice
p208
(I0
I38
I1
tp209
Rp210
sS'values'
p211
g93
sasstp212
bsb.