ccopy_reg
_reconstructor
p0
(cpandas.core.frame
DataFrame
p1
c__builtin__
object
p2
Ntp3
Rp4
(dp5
S'_metadata'
p6
(lp7
sS'_typ'
p8
S'dataframe'
p9
sS'_data'
p10
g0
(cpandas.core.internals
BlockManager
p11
g2
Ntp12
Rp13
((lp14
cpandas.core.indexes.base
_new_Index
p15
(cpandas.core.indexes.base
Index
p16
(dp17
S'data'
p18
cnumpy.core.multiarray
_reconstruct
p19
(cnumpy
ndarray
p20
(I0
tp21
S'b'
p22
tp23
Rp24
(I1
(I14
tp25
cnumpy
dtype
p26
(S'O8'
p27
I0
I1
tp28
Rp29
(I3
S'|'
p30
NNNI-1
I-1
I63
tp31
bI00
(lp32
S'year'
p33
aS'type'
p34
aS'procOriginal'
p35
aS'proc'
p36
aS'proc_s0'
p37
aS'cat'
p38
aS'inputWSFile'
p39
aS'nominalDataName'
p40
aS'modelWSFile'
p41
aS'model'
p42
aS'rate'
p43
aS'nominal_yield'
p44
aS'sumw2'
p45
aS'nominal_yield_COWCorr'
p46
atp47
bsS'name'
p48
Nstp49
Rp50
ag15
(cpandas.core.indexes.numeric
Int64Index
p51
(dp52
g18
g19
(g20
(I0
tp53
g22
tp54
Rp55
(I1
(I38
tp56
g26
(S'i8'
p57
I0
I1
tp58
Rp59
(I3
S'<'
p60
NNNI-1
I-1
I0
tp61
bI00
S'\x00\x00\x00\x00\x00\x00\x00\x00\x01\x00\x00\x00\x00\x00\x00\x00\x02\x00\x00\x00\x00\x00\x00\x00\x03\x00\x00\x00\x00\x00\x00\x00\x04\x00\x00\x00\x00\x00\x00\x00\x05\x00\x00\x00\x00\x00\x00\x00\x06\x00\x00\x00\x00\x00\x00\x00\x07\x00\x00\x00\x00\x00\x00\x00\x08\x00\x00\x00\x00\x00\x00\x00\t\x00\x00\x00\x00\x00\x00\x00\n\x00\x00\x00\x00\x00\x00\x00\x0b\x00\x00\x00\x00\x00\x00\x00\x0c\x00\x00\x00\x00\x00\x00\x00\r\x00\x00\x00\x00\x00\x00\x00\x0e\x00\x00\x00\x00\x00\x00\x00\x0f\x00\x00\x00\x00\x00\x00\x00\x10\x00\x00\x00\x00\x00\x00\x00\x11\x00\x00\x00\x00\x00\x00\x00\x12\x00\x00\x00\x00\x00\x00\x00\x13\x00\x00\x00\x00\x00\x00\x00\x14\x00\x00\x00\x00\x00\x00\x00\x15\x00\x00\x00\x00\x00\x00\x00\x16\x00\x00\x00\x00\x00\x00\x00\x17\x00\x00\x00\x00\x00\x00\x00\x18\x00\x00\x00\x00\x00\x00\x00\x19\x00\x00\x00\x00\x00\x00\x00\x1a\x00\x00\x00\x00\x00\x00\x00\x1b\x00\x00\x00\x00\x00\x00\x00\x1c\x00\x00\x00\x00\x00\x00\x00\x1d\x00\x00\x00\x00\x00\x00\x00\x1e\x00\x00\x00\x00\x00\x00\x00\x1f\x00\x00\x00\x00\x00\x00\x00 \x00\x00\x00\x00\x00\x00\x00!\x00\x00\x00\x00\x00\x00\x00"\x00\x00\x00\x00\x00\x00\x00#\x00\x00\x00\x00\x00\x00\x00$\x00\x00\x00\x00\x00\x00\x00%\x00\x00\x00\x00\x00\x00\x00'
p62
tp63
bsg48
Nstp64
Rp65
a(lp66
g19
(g20
(I0
tp67
g22
tp68
Rp69
(I1
(I14
I38
tp70
g29
I00
(lp71
S'2016'
p72
ag72
ag72
ag72
ag72
ag72
ag72
ag72
ag72
ag72
ag72
ag72
aS'2017'
p73
ag73
ag73
ag73
ag73
ag73
ag73
ag73
ag73
ag73
ag73
ag73
aS'2018'
p74
ag74
ag74
ag74
ag74
ag74
ag74
ag74
ag74
ag74
ag74
ag74
aS'merged'
p75
ag75
aS'sig'
p76
ag76
ag76
ag76
ag76
ag76
ag76
ag76
ag76
ag76
ag76
ag76
ag76
ag76
ag76
ag76
ag76
ag76
ag76
ag76
ag76
ag76
ag76
ag76
ag76
ag76
ag76
ag76
ag76
ag76
ag76
ag76
ag76
ag76
ag76
ag76
aS'bkg'
p77
ag18
aS'VBFH'
p78
aS'VH'
p79
aS'ggH'
p80
aS'ggHHkl0kt1'
p81
aS'ggHHkl0kt1WWdilep'
p82
aS'ggHHkl1kt1'
p83
aS'ggHHkl1kt1WWdilep'
p84
aS'ggHHkl2p45kt1'
p85
aS'ggHHkl2p45kt1WWdilep'
p86
aS'ggHHkl5kt1'
p87
aS'ggHHkl5kt1WWdilep'
p88
aS'ttH'
p89
ag78
ag79
ag80
ag81
ag82
ag83
ag84
ag85
ag86
ag87
ag88
ag89
ag78
ag79
ag80
ag81
ag82
ag83
ag84
ag85
ag86
ag87
ag88
ag89
aS'bkg_mass'
p90
aS'data_obs'
p91
aS'VBFH_2016_hgg'
p92
aS'VH_2016_hgg'
p93
aS'ggH_2016_hgg'
p94
aS'ggHHkl0kt1_2016_hgg'
p95
aS'ggHHkl0kt1WWdilep_2016_hgg'
p96
aS'ggHHkl1kt1_2016_hgg'
p97
aS'ggHHkl1kt1WWdilep_2016_hgg'
p98
aS'ggHHkl2p45kt1_2016_hgg'
p99
aS'ggHHkl2p45kt1WWdilep_2016_hgg'
p100
aS'ggHHkl5kt1_2016_hgg'
p101
aS'ggHHkl5kt1WWdilep_2016_hgg'
p102
aS'ttH_2016_hgg'
p103
aS'VBFH_2017_hgg'
p104
aS'VH_2017_hgg'
p105
aS'ggH_2017_hgg'
p106
aS'ggHHkl0kt1_2017_hgg'
p107
aS'ggHHkl0kt1WWdilep_2017_hgg'
p108
aS'ggHHkl1kt1_2017_hgg'
p109
aS'ggHHkl1kt1WWdilep_2017_hgg'
p110
aS'ggHHkl2p45kt1_2017_hgg'
p111
aS'ggHHkl2p45kt1WWdilep_2017_hgg'
p112
aS'ggHHkl5kt1_2017_hgg'
p113
aS'ggHHkl5kt1WWdilep_2017_hgg'
p114
aS'ttH_2017_hgg'
p115
aS'VBFH_2018_hgg'
p116
aS'VH_2018_hgg'
p117
aS'ggH_2018_hgg'
p118
aS'ggHHkl0kt1_2018_hgg'
p119
aS'ggHHkl0kt1WWdilep_2018_hgg'
p120
aS'ggHHkl1kt1_2018_hgg'
p121
aS'ggHHkl1kt1WWdilep_2018_hgg'
p122
aS'ggHHkl2p45kt1_2018_hgg'
p123
aS'ggHHkl2p45kt1WWdilep_2018_hgg'
p124
aS'ggHHkl5kt1_2018_hgg'
p125
aS'ggHHkl5kt1WWdilep_2018_hgg'
p126
aS'ttH_2018_hgg'
p127
ag90
ag91
ag78
ag79
ag80
ag81
ag82
ag83
ag84
ag85
ag86
ag87
ag88
ag89
ag78
ag79
ag80
ag81
ag82
ag83
ag84
ag85
ag86
ag87
ag88
ag89
ag78
ag79
ag80
ag81
ag82
ag83
ag84
ag85
ag86
ag87
ag88
ag89
aS'-'
p128
ag128
aS'SR1'
p129
ag129
ag129
ag129
ag129
ag129
ag129
ag129
ag129
ag129
ag129
ag129
ag129
ag129
ag129
ag129
ag129
ag129
ag129
ag129
ag129
ag129
ag129
ag129
ag129
ag129
ag129
ag129
ag129
ag129
ag129
ag129
ag129
ag129
ag129
ag129
ag129
ag129
aS'/home/users/fsetti/HHggTauTau/coupling_scan/CMSSW_10_2_13/src/flashggFinalFit/files_systs/12Apr2022_noSyst//ws_signal_2016/output_VBFH_M125_13TeV_pythia8_VBFH.root'
p130
aS'/home/users/fsetti/HHggTauTau/coupling_scan/CMSSW_10_2_13/src/flashggFinalFit/files_systs/12Apr2022_noSyst//ws_signal_2016/output_VH_M125_13TeV_pythia8_VH.root'
p131
aS'/home/users/fsetti/HHggTauTau/coupling_scan/CMSSW_10_2_13/src/flashggFinalFit/files_systs/12Apr2022_noSyst//ws_signal_2016/output_ggH_M125_13TeV_pythia8_ggH.root'
p132
aS'/home/users/fsetti/HHggTauTau/coupling_scan/CMSSW_10_2_13/src/flashggFinalFit/files_systs/12Apr2022_noSyst//ws_signal_2016/output_ggHHkl0kt1_M125_13TeV_pythia8_ggHHkl0kt1.root'
p133
aS'/home/users/fsetti/HHggTauTau/coupling_scan/CMSSW_10_2_13/src/flashggFinalFit/files_systs/12Apr2022_noSyst//ws_signal_2016/output_ggHHkl0kt1WWdilep_M125_13TeV_pythia8_ggHHkl0kt1WWdilep.root'
p134
aS'/home/users/fsetti/HHggTauTau/coupling_scan/CMSSW_10_2_13/src/flashggFinalFit/files_systs/12Apr2022_noSyst//ws_signal_2016/output_ggHHkl1kt1_M125_13TeV_pythia8_ggHHkl1kt1.root'
p135
aS'/home/users/fsetti/HHggTauTau/coupling_scan/CMSSW_10_2_13/src/flashggFinalFit/files_systs/12Apr2022_noSyst//ws_signal_2016/output_ggHHkl1kt1WWdilep_M125_13TeV_pythia8_ggHHkl1kt1WWdilep.root'
p136
aS'/home/users/fsetti/HHggTauTau/coupling_scan/CMSSW_10_2_13/src/flashggFinalFit/files_systs/12Apr2022_noSyst//ws_signal_2016/output_ggHHkl2p45kt1_M125_13TeV_pythia8_ggHHkl2p45kt1.root'
p137
aS'/home/users/fsetti/HHggTauTau/coupling_scan/CMSSW_10_2_13/src/flashggFinalFit/files_systs/12Apr2022_noSyst//ws_signal_2016/output_ggHHkl2p45kt1WWdilep_M125_13TeV_pythia8_ggHHkl2p45kt1WWdilep.root'
p138
aS'/home/users/fsetti/HHggTauTau/coupling_scan/CMSSW_10_2_13/src/flashggFinalFit/files_systs/12Apr2022_noSyst//ws_signal_2016/output_ggHHkl5kt1_M125_13TeV_pythia8_ggHHkl5kt1.root'
p139
aS'/home/users/fsetti/HHggTauTau/coupling_scan/CMSSW_10_2_13/src/flashggFinalFit/files_systs/12Apr2022_noSyst//ws_signal_2016/output_ggHHkl5kt1WWdilep_M125_13TeV_pythia8_ggHHkl5kt1WWdilep.root'
p140
aS'/home/users/fsetti/HHggTauTau/coupling_scan/CMSSW_10_2_13/src/flashggFinalFit/files_systs/12Apr2022_noSyst//ws_signal_2016/output_ttH_M125_13TeV_pythia8_ttH.root'
p141
aS'/home/users/fsetti/HHggTauTau/coupling_scan/CMSSW_10_2_13/src/flashggFinalFit/files_systs/12Apr2022_noSyst//ws_signal_2017/output_VBFH_M125_13TeV_pythia8_VBFH.root'
p142
aS'/home/users/fsetti/HHggTauTau/coupling_scan/CMSSW_10_2_13/src/flashggFinalFit/files_systs/12Apr2022_noSyst//ws_signal_2017/output_VH_M125_13TeV_pythia8_VH.root'
p143
aS'/home/users/fsetti/HHggTauTau/coupling_scan/CMSSW_10_2_13/src/flashggFinalFit/files_systs/12Apr2022_noSyst//ws_signal_2017/output_ggH_M125_13TeV_pythia8_ggH.root'
p144
aS'/home/users/fsetti/HHggTauTau/coupling_scan/CMSSW_10_2_13/src/flashggFinalFit/files_systs/12Apr2022_noSyst//ws_signal_2017/output_ggHHkl0kt1_M125_13TeV_pythia8_ggHHkl0kt1.root'
p145
aS'/home/users/fsetti/HHggTauTau/coupling_scan/CMSSW_10_2_13/src/flashggFinalFit/files_systs/12Apr2022_noSyst//ws_signal_2017/output_ggHHkl0kt1WWdilep_M125_13TeV_pythia8_ggHHkl0kt1WWdilep.root'
p146
aS'/home/users/fsetti/HHggTauTau/coupling_scan/CMSSW_10_2_13/src/flashggFinalFit/files_systs/12Apr2022_noSyst//ws_signal_2017/output_ggHHkl1kt1_M125_13TeV_pythia8_ggHHkl1kt1.root'
p147
aS'/home/users/fsetti/HHggTauTau/coupling_scan/CMSSW_10_2_13/src/flashggFinalFit/files_systs/12Apr2022_noSyst//ws_signal_2017/output_ggHHkl1kt1WWdilep_M125_13TeV_pythia8_ggHHkl1kt1WWdilep.root'
p148
aS'/home/users/fsetti/HHggTauTau/coupling_scan/CMSSW_10_2_13/src/flashggFinalFit/files_systs/12Apr2022_noSyst//ws_signal_2017/output_ggHHkl2p45kt1_M125_13TeV_pythia8_ggHHkl2p45kt1.root'
p149
aS'/home/users/fsetti/HHggTauTau/coupling_scan/CMSSW_10_2_13/src/flashggFinalFit/files_systs/12Apr2022_noSyst//ws_signal_2017/output_ggHHkl2p45kt1WWdilep_M125_13TeV_pythia8_ggHHkl2p45kt1WWdilep.root'
p150
aS'/home/users/fsetti/HHggTauTau/coupling_scan/CMSSW_10_2_13/src/flashggFinalFit/files_systs/12Apr2022_noSyst//ws_signal_2017/output_ggHHkl5kt1_M125_13TeV_pythia8_ggHHkl5kt1.root'
p151
aS'/home/users/fsetti/HHggTauTau/coupling_scan/CMSSW_10_2_13/src/flashggFinalFit/files_systs/12Apr2022_noSyst//ws_signal_2017/output_ggHHkl5kt1WWdilep_M125_13TeV_pythia8_ggHHkl5kt1WWdilep.root'
p152
aS'/home/users/fsetti/HHggTauTau/coupling_scan/CMSSW_10_2_13/src/flashggFinalFit/files_systs/12Apr2022_noSyst//ws_signal_2017/output_ttH_M125_13TeV_pythia8_ttH.root'
p153
aS'/home/users/fsetti/HHggTauTau/coupling_scan/CMSSW_10_2_13/src/flashggFinalFit/files_systs/12Apr2022_noSyst//ws_signal_2018/output_VBFH_M125_13TeV_pythia8_VBFH.root'
p154
aS'/home/users/fsetti/HHggTauTau/coupling_scan/CMSSW_10_2_13/src/flashggFinalFit/files_systs/12Apr2022_noSyst//ws_signal_2018/output_VH_M125_13TeV_pythia8_VH.root'
p155
aS'/home/users/fsetti/HHggTauTau/coupling_scan/CMSSW_10_2_13/src/flashggFinalFit/files_systs/12Apr2022_noSyst//ws_signal_2018/output_ggH_M125_13TeV_pythia8_ggH.root'
p156
aS'/home/users/fsetti/HHggTauTau/coupling_scan/CMSSW_10_2_13/src/flashggFinalFit/files_systs/12Apr2022_noSyst//ws_signal_2018/output_ggHHkl0kt1_M125_13TeV_pythia8_ggHHkl0kt1.root'
p157
aS'/home/users/fsetti/HHggTauTau/coupling_scan/CMSSW_10_2_13/src/flashggFinalFit/files_systs/12Apr2022_noSyst//ws_signal_2018/output_ggHHkl0kt1WWdilep_M125_13TeV_pythia8_ggHHkl0kt1WWdilep.root'
p158
aS'/home/users/fsetti/HHggTauTau/coupling_scan/CMSSW_10_2_13/src/flashggFinalFit/files_systs/12Apr2022_noSyst//ws_signal_2018/output_ggHHkl1kt1_M125_13TeV_pythia8_ggHHkl1kt1.root'
p159
aS'/home/users/fsetti/HHggTauTau/coupling_scan/CMSSW_10_2_13/src/flashggFinalFit/files_systs/12Apr2022_noSyst//ws_signal_2018/output_ggHHkl1kt1WWdilep_M125_13TeV_pythia8_ggHHkl1kt1WWdilep.root'
p160
aS'/home/users/fsetti/HHggTauTau/coupling_scan/CMSSW_10_2_13/src/flashggFinalFit/files_systs/12Apr2022_noSyst//ws_signal_2018/output_ggHHkl2p45kt1_M125_13TeV_pythia8_ggHHkl2p45kt1.root'
p161
aS'/home/users/fsetti/HHggTauTau/coupling_scan/CMSSW_10_2_13/src/flashggFinalFit/files_systs/12Apr2022_noSyst//ws_signal_2018/output_ggHHkl2p45kt1WWdilep_M125_13TeV_pythia8_ggHHkl2p45kt1WWdilep.root'
p162
aS'/home/users/fsetti/HHggTauTau/coupling_scan/CMSSW_10_2_13/src/flashggFinalFit/files_systs/12Apr2022_noSyst//ws_signal_2018/output_ggHHkl5kt1_M125_13TeV_pythia8_ggHHkl5kt1.root'
p163
aS'/home/users/fsetti/HHggTauTau/coupling_scan/CMSSW_10_2_13/src/flashggFinalFit/files_systs/12Apr2022_noSyst//ws_signal_2018/output_ggHHkl5kt1WWdilep_M125_13TeV_pythia8_ggHHkl5kt1WWdilep.root'
p164
aS'/home/users/fsetti/HHggTauTau/coupling_scan/CMSSW_10_2_13/src/flashggFinalFit/files_systs/12Apr2022_noSyst//ws_signal_2018/output_ttH_M125_13TeV_pythia8_ttH.root'
p165
ag128
ag128
aS'VBFH_125_13TeV_SR1'
p166
aS'VH_125_13TeV_SR1'
p167
aS'ggH_125_13TeV_SR1'
p168
aS'ggHHkl0kt1_125_13TeV_SR1'
p169
aS'ggHHkl0kt1WWdilep_125_13TeV_SR1'
p170
aS'ggHHkl1kt1_125_13TeV_SR1'
p171
aS'ggHHkl1kt1WWdilep_125_13TeV_SR1'
p172
aS'ggHHkl2p45kt1_125_13TeV_SR1'
p173
aS'ggHHkl2p45kt1WWdilep_125_13TeV_SR1'
p174
aS'ggHHkl5kt1_125_13TeV_SR1'
p175
aS'ggHHkl5kt1WWdilep_125_13TeV_SR1'
p176
aS'ttH_125_13TeV_SR1'
p177
aS'VBFH_125_13TeV_SR1'
p178
aS'VH_125_13TeV_SR1'
p179
aS'ggH_125_13TeV_SR1'
p180
aS'ggHHkl0kt1_125_13TeV_SR1'
p181
aS'ggHHkl0kt1WWdilep_125_13TeV_SR1'
p182
aS'ggHHkl1kt1_125_13TeV_SR1'
p183
aS'ggHHkl1kt1WWdilep_125_13TeV_SR1'
p184
aS'ggHHkl2p45kt1_125_13TeV_SR1'
p185
aS'ggHHkl2p45kt1WWdilep_125_13TeV_SR1'
p186
aS'ggHHkl5kt1_125_13TeV_SR1'
p187
aS'ggHHkl5kt1WWdilep_125_13TeV_SR1'
p188
aS'ttH_125_13TeV_SR1'
p189
aS'VBFH_125_13TeV_SR1'
p190
aS'VH_125_13TeV_SR1'
p191
aS'ggH_125_13TeV_SR1'
p192
aS'ggHHkl0kt1_125_13TeV_SR1'
p193
aS'ggHHkl0kt1WWdilep_125_13TeV_SR1'
p194
aS'ggHHkl1kt1_125_13TeV_SR1'
p195
aS'ggHHkl1kt1WWdilep_125_13TeV_SR1'
p196
aS'ggHHkl2p45kt1_125_13TeV_SR1'
p197
aS'ggHHkl2p45kt1WWdilep_125_13TeV_SR1'
p198
aS'ggHHkl5kt1_125_13TeV_SR1'
p199
aS'ggHHkl5kt1WWdilep_125_13TeV_SR1'
p200
aS'ttH_125_13TeV_SR1'
p201
ag128
ag128
aS'./Models/signal/CMS-HGG_sigfit_packaged_SR1.root'
p202
aS'./Models/signal/CMS-HGG_sigfit_packaged_SR1.root'
p203
aS'./Models/signal/CMS-HGG_sigfit_packaged_SR1.root'
p204
aS'./Models/signal/CMS-HGG_sigfit_packaged_SR1.root'
p205
aS'./Models/signal/CMS-HGG_sigfit_packaged_SR1.root'
p206
aS'./Models/signal/CMS-HGG_sigfit_packaged_SR1.root'
p207
aS'./Models/signal/CMS-HGG_sigfit_packaged_SR1.root'
p208
aS'./Models/signal/CMS-HGG_sigfit_packaged_SR1.root'
p209
aS'./Models/signal/CMS-HGG_sigfit_packaged_SR1.root'
p210
aS'./Models/signal/CMS-HGG_sigfit_packaged_SR1.root'
p211
aS'./Models/signal/CMS-HGG_sigfit_packaged_SR1.root'
p212
aS'./Models/signal/CMS-HGG_sigfit_packaged_SR1.root'
p213
aS'./Models/signal/CMS-HGG_sigfit_packaged_SR1.root'
p214
aS'./Models/signal/CMS-HGG_sigfit_packaged_SR1.root'
p215
aS'./Models/signal/CMS-HGG_sigfit_packaged_SR1.root'
p216
aS'./Models/signal/CMS-HGG_sigfit_packaged_SR1.root'
p217
aS'./Models/signal/CMS-HGG_sigfit_packaged_SR1.root'
p218
aS'./Models/signal/CMS-HGG_sigfit_packaged_SR1.root'
p219
aS'./Models/signal/CMS-HGG_sigfit_packaged_SR1.root'
p220
aS'./Models/signal/CMS-HGG_sigfit_packaged_SR1.root'
p221
aS'./Models/signal/CMS-HGG_sigfit_packaged_SR1.root'
p222
aS'./Models/signal/CMS-HGG_sigfit_packaged_SR1.root'
p223
aS'./Models/signal/CMS-HGG_sigfit_packaged_SR1.root'
p224
aS'./Models/signal/CMS-HGG_sigfit_packaged_SR1.root'
p225
aS'./Models/signal/CMS-HGG_sigfit_packaged_SR1.root'
p226
aS'./Models/signal/CMS-HGG_sigfit_packaged_SR1.root'
p227
aS'./Models/signal/CMS-HGG_sigfit_packaged_SR1.root'
p228
aS'./Models/signal/CMS-HGG_sigfit_packaged_SR1.root'
p229
aS'./Models/signal/CMS-HGG_sigfit_packaged_SR1.root'
p230
aS'./Models/signal/CMS-HGG_sigfit_packaged_SR1.root'
p231
aS'./Models/signal/CMS-HGG_sigfit_packaged_SR1.root'
p232
aS'./Models/signal/CMS-HGG_sigfit_packaged_SR1.root'
p233
aS'./Models/signal/CMS-HGG_sigfit_packaged_SR1.root'
p234
aS'./Models/signal/CMS-HGG_sigfit_packaged_SR1.root'
p235
aS'./Models/signal/CMS-HGG_sigfit_packaged_SR1.root'
p236
aS'./Models/signal/CMS-HGG_sigfit_packaged_SR1.root'
p237
aS'./Models/background/CMS-HGG_multipdf_SR1.root'
p238
ag238
aS'wsig_13TeV:hggpdfsmrel_VBFH_2016_SR1_13TeV'
p239
aS'wsig_13TeV:hggpdfsmrel_VH_2016_SR1_13TeV'
p240
aS'wsig_13TeV:hggpdfsmrel_ggH_2016_SR1_13TeV'
p241
aS'wsig_13TeV:hggpdfsmrel_ggHHkl0kt1_2016_SR1_13TeV'
p242
aS'wsig_13TeV:hggpdfsmrel_ggHHkl0kt1WWdilep_2016_SR1_13TeV'
p243
aS'wsig_13TeV:hggpdfsmrel_ggHHkl1kt1_2016_SR1_13TeV'
p244
aS'wsig_13TeV:hggpdfsmrel_ggHHkl1kt1WWdilep_2016_SR1_13TeV'
p245
aS'wsig_13TeV:hggpdfsmrel_ggHHkl2p45kt1_2016_SR1_13TeV'
p246
aS'wsig_13TeV:hggpdfsmrel_ggHHkl2p45kt1WWdilep_2016_SR1_13TeV'
p247
aS'wsig_13TeV:hggpdfsmrel_ggHHkl5kt1_2016_SR1_13TeV'
p248
aS'wsig_13TeV:hggpdfsmrel_ggHHkl5kt1WWdilep_2016_SR1_13TeV'
p249
aS'wsig_13TeV:hggpdfsmrel_ttH_2016_SR1_13TeV'
p250
aS'wsig_13TeV:hggpdfsmrel_VBFH_2017_SR1_13TeV'
p251
aS'wsig_13TeV:hggpdfsmrel_VH_2017_SR1_13TeV'
p252
aS'wsig_13TeV:hggpdfsmrel_ggH_2017_SR1_13TeV'
p253
aS'wsig_13TeV:hggpdfsmrel_ggHHkl0kt1_2017_SR1_13TeV'
p254
aS'wsig_13TeV:hggpdfsmrel_ggHHkl0kt1WWdilep_2017_SR1_13TeV'
p255
aS'wsig_13TeV:hggpdfsmrel_ggHHkl1kt1_2017_SR1_13TeV'
p256
aS'wsig_13TeV:hggpdfsmrel_ggHHkl1kt1WWdilep_2017_SR1_13TeV'
p257
aS'wsig_13TeV:hggpdfsmrel_ggHHkl2p45kt1_2017_SR1_13TeV'
p258
aS'wsig_13TeV:hggpdfsmrel_ggHHkl2p45kt1WWdilep_2017_SR1_13TeV'
p259
aS'wsig_13TeV:hggpdfsmrel_ggHHkl5kt1_2017_SR1_13TeV'
p260
aS'wsig_13TeV:hggpdfsmrel_ggHHkl5kt1WWdilep_2017_SR1_13TeV'
p261
aS'wsig_13TeV:hggpdfsmrel_ttH_2017_SR1_13TeV'
p262
aS'wsig_13TeV:hggpdfsmrel_VBFH_2018_SR1_13TeV'
p263
aS'wsig_13TeV:hggpdfsmrel_VH_2018_SR1_13TeV'
p264
aS'wsig_13TeV:hggpdfsmrel_ggH_2018_SR1_13TeV'
p265
aS'wsig_13TeV:hggpdfsmrel_ggHHkl0kt1_2018_SR1_13TeV'
p266
aS'wsig_13TeV:hggpdfsmrel_ggHHkl0kt1WWdilep_2018_SR1_13TeV'
p267
aS'wsig_13TeV:hggpdfsmrel_ggHHkl1kt1_2018_SR1_13TeV'
p268
aS'wsig_13TeV:hggpdfsmrel_ggHHkl1kt1WWdilep_2018_SR1_13TeV'
p269
aS'wsig_13TeV:hggpdfsmrel_ggHHkl2p45kt1_2018_SR1_13TeV'
p270
aS'wsig_13TeV:hggpdfsmrel_ggHHkl2p45kt1WWdilep_2018_SR1_13TeV'
p271
aS'wsig_13TeV:hggpdfsmrel_ggHHkl5kt1_2018_SR1_13TeV'
p272
aS'wsig_13TeV:hggpdfsmrel_ggHHkl5kt1WWdilep_2018_SR1_13TeV'
p273
aS'wsig_13TeV:hggpdfsmrel_ttH_2018_SR1_13TeV'
p274
aS'multipdf:CMS_hgg_SR1_13TeV_bkgshape'
p275
aS'multipdf:roohist_data_mass_SR1'
p276
aI1000
aI1000
aI1000
aI1000
aI1000
aI1000
aI1000
aI1000
aI1000
aI1000
aI1000
aI1000
aI1000
aI1000
aI1000
aI1000
aI1000
aI1000
aI1000
aI1000
aI1000
aI1000
aI1000
aI1000
aI1000
aI1000
aI1000
aI1000
aI1000
aI1000
aI1000
aI1000
aI1000
aI1000
aI1000
aI1000
aF1.0
aI-1
aF0.00867361905815019
aF0.25692169275359356
aF0.020775708380597984
aF0.07755658525191791
aF0.02778788905015643
aF0.04499709361536211
aF0.01521996002195151
aF0.016814259671627665
aF0.00542264231478132
aF0.03078686741821087
aF0.01202125396128422
aF0.05807235691003624
aF0.010083174182210716
aF0.3242715385503911
aF0.000975449050788074
aF0.07364381796946098
aF0.03111758420970505
aF0.05045684629515358
aF0.017793144700930012
aF0.01872727009861565
aF0.0065356012028753695
aF0.03649137872527445
aF0.011408777396867962
aF0.05457586703646484
aF0.010119524326577188
aF0.4546704593784177
aF0.006552064268465039
aF0.13119607465939992
aF0.04431353064672509
aF0.07571979806665448
aF0.02130867278108282
aF0.02058346303963282
aF0.01163847774637856
aF0.05263234454841491
aF0.02002402650694115
aF0.09527308406460822
ag128
ag128
aF5.306334329129123e-06
aF0.00014903782085226553
aF4.5044012958528765e-05
aF1.7105048210073643e-07
aF2.4760110709026038e-08
aF4.870265763816569e-08
aF5.844074876938701e-09
aF1.988602769502693e-08
aF1.0241492979245246e-08
aF8.921557437267752e-08
aF1.1761504016952472e-08
aF2.351814608058142e-05
aF1.2056895187973275e-05
aF0.00019529497598485236
aF2.3177234976108e-05
aF1.4980382185146364e-07
aF2.4665446304394312e-08
aF6.022597321930633e-08
aF7.158201722858511e-09
aF4.270014128217686e-08
aF8.857898279773272e-08
aF1.0999503513451671e-07
aF9.361099377516272e-09
aF2.6904992657734306e-05
aF1.794612591445744e-05
aF0.0004094649977407913
aF0.00022208017428089103
aF4.604772939742916e-07
aF5.1915157661014426e-08
aF1.32674892757902e-07
aF3.534169927326087e-08
aF4.086931130273665e-08
aF2.686393855398235e-06
aF2.3245619700814555e-07
aF2.9636822537612178e-08
aF5.71249260838694e-05
ag128
ag128
aF0.00867361905815019
aF0.25692169275359356
aF0.020775708380597984
aF0.07755658525191791
aF0.02778788905015643
aF0.04499709361536211
aF0.01521996002195151
aF0.016814259671627665
aF0.00542264231478132
aF0.03078686741821087
aF0.01202125396128422
aF0.05807235691003624
aF0.010083174182210716
aF0.3242715385503911
aF0.000975449050788074
aF0.07364381796946098
aF0.03111758420970505
aF0.05045684629515358
aF0.017793144700930012
aF0.01872727009861565
aF0.0065356012028753695
aF0.03649137872527445
aF0.011408777396867962
aF0.05457586703646484
aF0.010119524326577188
aF0.4546704593784177
aF0.006552064268465039
aF0.13119607465939992
aF0.04431353064672509
aF0.07571979806665448
aF0.02130867278108282
aF0.02058346303963282
aF0.01163847774637856
aF0.05263234454841491
aF0.02002402650694115
aF0.09527308406460822
ag128
ag128
atp277
ba(lp278
g15
(g16
(dp279
g18
g19
(g20
(I0
tp280
g22
tp281
Rp282
(I1
(I14
tp283
g29
I00
(lp284
g33
ag34
ag35
ag36
ag37
ag38
ag39
ag40
ag41
ag42
ag43
ag44
ag45
ag46
atp285
bsg48
Nstp286
Rp287
a(dp288
S'0.14.1'
p289
(dp290
S'axes'
p291
g14
sS'blocks'
p292
(lp293
(dp294
S'mgr_locs'
p295
c__builtin__
slice
p296
(I0
I14
I1
tp297
Rp298
sS'values'
p299
g69
sasstp300
bsb.