ccopy_reg
_reconstructor
p0
(cpandas.core.frame
DataFrame
p1
c__builtin__
object
p2
Ntp3
Rp4
(dp5
S'_metadata'
p6
(lp7
sS'_typ'
p8
S'dataframe'
p9
sS'_data'
p10
g0
(cpandas.core.internals
BlockManager
p11
g2
Ntp12
Rp13
((lp14
cpandas.core.indexes.base
_new_Index
p15
(cpandas.core.indexes.base
Index
p16
(dp17
S'data'
p18
cnumpy.core.multiarray
_reconstruct
p19
(cnumpy
ndarray
p20
(I0
tp21
S'b'
p22
tp23
Rp24
(I1
(I38
tp25
cnumpy
dtype
p26
(S'O8'
p27
I0
I1
tp28
Rp29
(I3
S'|'
p30
NNNI-1
I-1
I63
tp31
bI00
(lp32
S'year'
p33
aS'type'
p34
aS'procOriginal'
p35
aS'proc'
p36
aS'proc_s0'
p37
aS'cat'
p38
aS'inputWSFile'
p39
aS'nominalDataName'
p40
aS'modelWSFile'
p41
aS'model'
p42
aS'rate'
p43
aS'nominal_yield'
p44
aS'sumw2'
p45
aS'nominal_yield_COWCorr'
p46
aS'weight_electron_veto_sf_Diphoton_Photon_up_yield'
p47
aS'weight_electron_veto_sf_Diphoton_Photon_down_yield'
p48
aS'weight_electron_id_sf_SelectedElectron_up_yield'
p49
aS'weight_electron_id_sf_SelectedElectron_down_yield'
p50
aS'weight_muon_id_sfSTAT_SelectedMuon_up_yield'
p51
aS'weight_muon_id_sfSTAT_SelectedMuon_down_yield'
p52
aS'weight_muon_id_sfSYS_SelectedMuon_up_yield'
p53
aS'weight_muon_id_sfSYS_SelectedMuon_down_yield'
p54
aS'weight_trigger_sf_up_yield'
p55
aS'weight_trigger_sf_down_yield'
p56
aS'JER_up_yield'
p57
aS'JER_down_yield'
p58
aS'JES_up_yield'
p59
aS'JES_down_yield'
p60
aS'MET_JER_up_yield'
p61
aS'MET_JER_down_yield'
p62
aS'MET_JES_up_yield'
p63
aS'MET_JES_down_yield'
p64
aS'MET_Unclustered_up_yield'
p65
aS'MET_Unclustered_down_yield'
p66
aS'Muon_pt_up_yield'
p67
aS'Muon_pt_down_yield'
p68
aS'Tau_pt_up_yield'
p69
aS'Tau_pt_down_yield'
p70
atp71
bsS'name'
p72
Nstp73
Rp74
ag15
(cpandas.core.indexes.numeric
Int64Index
p75
(dp76
g18
g19
(g20
(I0
tp77
g22
tp78
Rp79
(I1
(I26
tp80
g26
(S'i8'
p81
I0
I1
tp82
Rp83
(I3
S'<'
p84
NNNI-1
I-1
I0
tp85
bI00
S'\x00\x00\x00\x00\x00\x00\x00\x00\x01\x00\x00\x00\x00\x00\x00\x00\x02\x00\x00\x00\x00\x00\x00\x00\x03\x00\x00\x00\x00\x00\x00\x00\x04\x00\x00\x00\x00\x00\x00\x00\x05\x00\x00\x00\x00\x00\x00\x00\x06\x00\x00\x00\x00\x00\x00\x00\x07\x00\x00\x00\x00\x00\x00\x00\x08\x00\x00\x00\x00\x00\x00\x00\t\x00\x00\x00\x00\x00\x00\x00\n\x00\x00\x00\x00\x00\x00\x00\x0b\x00\x00\x00\x00\x00\x00\x00\x0c\x00\x00\x00\x00\x00\x00\x00\r\x00\x00\x00\x00\x00\x00\x00\x0e\x00\x00\x00\x00\x00\x00\x00\x0f\x00\x00\x00\x00\x00\x00\x00\x10\x00\x00\x00\x00\x00\x00\x00\x11\x00\x00\x00\x00\x00\x00\x00\x12\x00\x00\x00\x00\x00\x00\x00\x13\x00\x00\x00\x00\x00\x00\x00\x14\x00\x00\x00\x00\x00\x00\x00\x15\x00\x00\x00\x00\x00\x00\x00\x16\x00\x00\x00\x00\x00\x00\x00\x17\x00\x00\x00\x00\x00\x00\x00\x18\x00\x00\x00\x00\x00\x00\x00\x19\x00\x00\x00\x00\x00\x00\x00'
p86
tp87
bsg72
Nstp88
Rp89
a(lp90
g19
(g20
(I0
tp91
g22
tp92
Rp93
(I1
(I38
I26
tp94
g29
I00
(lp95
S'2016'
p96
ag96
ag96
ag96
ag96
ag96
ag96
ag96
aS'2017'
p97
ag97
ag97
ag97
ag97
ag97
ag97
ag97
aS'2018'
p98
ag98
ag98
ag98
ag98
ag98
ag98
ag98
aS'merged'
p99
ag99
aS'sig'
p100
ag100
ag100
ag100
ag100
ag100
ag100
ag100
ag100
ag100
ag100
ag100
ag100
ag100
ag100
ag100
ag100
ag100
ag100
ag100
ag100
ag100
ag100
ag100
aS'bkg'
p101
ag18
aS'VBFH'
p102
aS'VH'
p103
aS'ggH'
p104
aS'ggHHkl0kt1'
p105
aS'ggHHkl1kt1'
p106
aS'ggHHkl2p45kt1'
p107
aS'ggHHkl5kt1'
p108
aS'ttH'
p109
ag102
ag103
ag104
ag105
ag106
ag107
ag108
ag109
ag102
ag103
ag104
ag105
ag106
ag107
ag108
ag109
aS'bkg_mass'
p110
aS'data_obs'
p111
aS'VBFH_2016_hgg'
p112
aS'VH_2016_hgg'
p113
aS'ggH_2016_hgg'
p114
aS'ggHHkl0kt1_2016_hgg'
p115
aS'ggHHkl1kt1_2016_hgg'
p116
aS'ggHHkl2p45kt1_2016_hgg'
p117
aS'ggHHkl5kt1_2016_hgg'
p118
aS'ttH_2016_hgg'
p119
aS'VBFH_2017_hgg'
p120
aS'VH_2017_hgg'
p121
aS'ggH_2017_hgg'
p122
aS'ggHHkl0kt1_2017_hgg'
p123
aS'ggHHkl1kt1_2017_hgg'
p124
aS'ggHHkl2p45kt1_2017_hgg'
p125
aS'ggHHkl5kt1_2017_hgg'
p126
aS'ttH_2017_hgg'
p127
aS'VBFH_2018_hgg'
p128
aS'VH_2018_hgg'
p129
aS'ggH_2018_hgg'
p130
aS'ggHHkl0kt1_2018_hgg'
p131
aS'ggHHkl1kt1_2018_hgg'
p132
aS'ggHHkl2p45kt1_2018_hgg'
p133
aS'ggHHkl5kt1_2018_hgg'
p134
aS'ttH_2018_hgg'
p135
ag110
ag111
ag102
ag103
ag104
ag105
ag106
ag107
ag108
ag109
ag102
ag103
ag104
ag105
ag106
ag107
ag108
ag109
ag102
ag103
ag104
ag105
ag106
ag107
ag108
ag109
aS'-'
p136
ag136
aS'SR1'
p137
ag137
ag137
ag137
ag137
ag137
ag137
ag137
ag137
ag137
ag137
ag137
ag137
ag137
ag137
ag137
ag137
ag137
ag137
ag137
ag137
ag137
ag137
ag137
ag137
ag137
aS'/home/users/fsetti/HHggTauTau/coupling_scan/CMSSW_10_2_13/src/flashggFinalFit/files_systs/09Apr2022_kls//ws_signal_2016/output_VBFH_M125_13TeV_pythia8_VBFH.root'
p138
aS'/home/users/fsetti/HHggTauTau/coupling_scan/CMSSW_10_2_13/src/flashggFinalFit/files_systs/09Apr2022_kls//ws_signal_2016/output_VH_M125_13TeV_pythia8_VH.root'
p139
aS'/home/users/fsetti/HHggTauTau/coupling_scan/CMSSW_10_2_13/src/flashggFinalFit/files_systs/09Apr2022_kls//ws_signal_2016/output_ggH_M125_13TeV_pythia8_ggH.root'
p140
aS'/home/users/fsetti/HHggTauTau/coupling_scan/CMSSW_10_2_13/src/flashggFinalFit/files_systs/09Apr2022_kls//ws_signal_2016/output_ggHHkl0kt1_M125_13TeV_pythia8_ggHHkl0kt1.root'
p141
aS'/home/users/fsetti/HHggTauTau/coupling_scan/CMSSW_10_2_13/src/flashggFinalFit/files_systs/09Apr2022_kls//ws_signal_2016/output_ggHHkl1kt1_M125_13TeV_pythia8_ggHHkl1kt1.root'
p142
aS'/home/users/fsetti/HHggTauTau/coupling_scan/CMSSW_10_2_13/src/flashggFinalFit/files_systs/09Apr2022_kls//ws_signal_2016/output_ggHHkl2p45kt1_M125_13TeV_pythia8_ggHHkl2p45kt1.root'
p143
aS'/home/users/fsetti/HHggTauTau/coupling_scan/CMSSW_10_2_13/src/flashggFinalFit/files_systs/09Apr2022_kls//ws_signal_2016/output_ggHHkl5kt1_M125_13TeV_pythia8_ggHHkl5kt1.root'
p144
aS'/home/users/fsetti/HHggTauTau/coupling_scan/CMSSW_10_2_13/src/flashggFinalFit/files_systs/09Apr2022_kls//ws_signal_2016/output_ttH_M125_13TeV_pythia8_ttH.root'
p145
aS'/home/users/fsetti/HHggTauTau/coupling_scan/CMSSW_10_2_13/src/flashggFinalFit/files_systs/09Apr2022_kls//ws_signal_2017/output_VBFH_M125_13TeV_pythia8_VBFH.root'
p146
aS'/home/users/fsetti/HHggTauTau/coupling_scan/CMSSW_10_2_13/src/flashggFinalFit/files_systs/09Apr2022_kls//ws_signal_2017/output_VH_M125_13TeV_pythia8_VH.root'
p147
aS'/home/users/fsetti/HHggTauTau/coupling_scan/CMSSW_10_2_13/src/flashggFinalFit/files_systs/09Apr2022_kls//ws_signal_2017/output_ggH_M125_13TeV_pythia8_ggH.root'
p148
aS'/home/users/fsetti/HHggTauTau/coupling_scan/CMSSW_10_2_13/src/flashggFinalFit/files_systs/09Apr2022_kls//ws_signal_2017/output_ggHHkl0kt1_M125_13TeV_pythia8_ggHHkl0kt1.root'
p149
aS'/home/users/fsetti/HHggTauTau/coupling_scan/CMSSW_10_2_13/src/flashggFinalFit/files_systs/09Apr2022_kls//ws_signal_2017/output_ggHHkl1kt1_M125_13TeV_pythia8_ggHHkl1kt1.root'
p150
aS'/home/users/fsetti/HHggTauTau/coupling_scan/CMSSW_10_2_13/src/flashggFinalFit/files_systs/09Apr2022_kls//ws_signal_2017/output_ggHHkl2p45kt1_M125_13TeV_pythia8_ggHHkl2p45kt1.root'
p151
aS'/home/users/fsetti/HHggTauTau/coupling_scan/CMSSW_10_2_13/src/flashggFinalFit/files_systs/09Apr2022_kls//ws_signal_2017/output_ggHHkl5kt1_M125_13TeV_pythia8_ggHHkl5kt1.root'
p152
aS'/home/users/fsetti/HHggTauTau/coupling_scan/CMSSW_10_2_13/src/flashggFinalFit/files_systs/09Apr2022_kls//ws_signal_2017/output_ttH_M125_13TeV_pythia8_ttH.root'
p153
aS'/home/users/fsetti/HHggTauTau/coupling_scan/CMSSW_10_2_13/src/flashggFinalFit/files_systs/09Apr2022_kls//ws_signal_2018/output_VBFH_M125_13TeV_pythia8_VBFH.root'
p154
aS'/home/users/fsetti/HHggTauTau/coupling_scan/CMSSW_10_2_13/src/flashggFinalFit/files_systs/09Apr2022_kls//ws_signal_2018/output_VH_M125_13TeV_pythia8_VH.root'
p155
aS'/home/users/fsetti/HHggTauTau/coupling_scan/CMSSW_10_2_13/src/flashggFinalFit/files_systs/09Apr2022_kls//ws_signal_2018/output_ggH_M125_13TeV_pythia8_ggH.root'
p156
aS'/home/users/fsetti/HHggTauTau/coupling_scan/CMSSW_10_2_13/src/flashggFinalFit/files_systs/09Apr2022_kls//ws_signal_2018/output_ggHHkl0kt1_M125_13TeV_pythia8_ggHHkl0kt1.root'
p157
aS'/home/users/fsetti/HHggTauTau/coupling_scan/CMSSW_10_2_13/src/flashggFinalFit/files_systs/09Apr2022_kls//ws_signal_2018/output_ggHHkl1kt1_M125_13TeV_pythia8_ggHHkl1kt1.root'
p158
aS'/home/users/fsetti/HHggTauTau/coupling_scan/CMSSW_10_2_13/src/flashggFinalFit/files_systs/09Apr2022_kls//ws_signal_2018/output_ggHHkl2p45kt1_M125_13TeV_pythia8_ggHHkl2p45kt1.root'
p159
aS'/home/users/fsetti/HHggTauTau/coupling_scan/CMSSW_10_2_13/src/flashggFinalFit/files_systs/09Apr2022_kls//ws_signal_2018/output_ggHHkl5kt1_M125_13TeV_pythia8_ggHHkl5kt1.root'
p160
aS'/home/users/fsetti/HHggTauTau/coupling_scan/CMSSW_10_2_13/src/flashggFinalFit/files_systs/09Apr2022_kls//ws_signal_2018/output_ttH_M125_13TeV_pythia8_ttH.root'
p161
ag136
ag136
aS'VBFH_125_13TeV_SR1'
p162
aS'VH_125_13TeV_SR1'
p163
aS'ggH_125_13TeV_SR1'
p164
aS'ggHHkl0kt1_125_13TeV_SR1'
p165
aS'ggHHkl1kt1_125_13TeV_SR1'
p166
aS'ggHHkl2p45kt1_125_13TeV_SR1'
p167
aS'ggHHkl5kt1_125_13TeV_SR1'
p168
aS'ttH_125_13TeV_SR1'
p169
aS'VBFH_125_13TeV_SR1'
p170
aS'VH_125_13TeV_SR1'
p171
aS'ggH_125_13TeV_SR1'
p172
aS'ggHHkl0kt1_125_13TeV_SR1'
p173
aS'ggHHkl1kt1_125_13TeV_SR1'
p174
aS'ggHHkl2p45kt1_125_13TeV_SR1'
p175
aS'ggHHkl5kt1_125_13TeV_SR1'
p176
aS'ttH_125_13TeV_SR1'
p177
aS'VBFH_125_13TeV_SR1'
p178
aS'VH_125_13TeV_SR1'
p179
aS'ggH_125_13TeV_SR1'
p180
aS'ggHHkl0kt1_125_13TeV_SR1'
p181
aS'ggHHkl1kt1_125_13TeV_SR1'
p182
aS'ggHHkl2p45kt1_125_13TeV_SR1'
p183
aS'ggHHkl5kt1_125_13TeV_SR1'
p184
aS'ttH_125_13TeV_SR1'
p185
ag136
ag136
aS'./Models/signal/CMS-HGG_sigfit_packaged_SR1.root'
p186
aS'./Models/signal/CMS-HGG_sigfit_packaged_SR1.root'
p187
aS'./Models/signal/CMS-HGG_sigfit_packaged_SR1.root'
p188
aS'./Models/signal/CMS-HGG_sigfit_packaged_SR1.root'
p189
aS'./Models/signal/CMS-HGG_sigfit_packaged_SR1.root'
p190
aS'./Models/signal/CMS-HGG_sigfit_packaged_SR1.root'
p191
aS'./Models/signal/CMS-HGG_sigfit_packaged_SR1.root'
p192
aS'./Models/signal/CMS-HGG_sigfit_packaged_SR1.root'
p193
aS'./Models/signal/CMS-HGG_sigfit_packaged_SR1.root'
p194
aS'./Models/signal/CMS-HGG_sigfit_packaged_SR1.root'
p195
aS'./Models/signal/CMS-HGG_sigfit_packaged_SR1.root'
p196
aS'./Models/signal/CMS-HGG_sigfit_packaged_SR1.root'
p197
aS'./Models/signal/CMS-HGG_sigfit_packaged_SR1.root'
p198
aS'./Models/signal/CMS-HGG_sigfit_packaged_SR1.root'
p199
aS'./Models/signal/CMS-HGG_sigfit_packaged_SR1.root'
p200
aS'./Models/signal/CMS-HGG_sigfit_packaged_SR1.root'
p201
aS'./Models/signal/CMS-HGG_sigfit_packaged_SR1.root'
p202
aS'./Models/signal/CMS-HGG_sigfit_packaged_SR1.root'
p203
aS'./Models/signal/CMS-HGG_sigfit_packaged_SR1.root'
p204
aS'./Models/signal/CMS-HGG_sigfit_packaged_SR1.root'
p205
aS'./Models/signal/CMS-HGG_sigfit_packaged_SR1.root'
p206
aS'./Models/signal/CMS-HGG_sigfit_packaged_SR1.root'
p207
aS'./Models/signal/CMS-HGG_sigfit_packaged_SR1.root'
p208
aS'./Models/signal/CMS-HGG_sigfit_packaged_SR1.root'
p209
aS'./Models/background/CMS-HGG_multipdf_SR1.root'
p210
ag210
aS'wsig_13TeV:hggpdfsmrel_VBFH_2016_SR1_13TeV'
p211
aS'wsig_13TeV:hggpdfsmrel_VH_2016_SR1_13TeV'
p212
aS'wsig_13TeV:hggpdfsmrel_ggH_2016_SR1_13TeV'
p213
aS'wsig_13TeV:hggpdfsmrel_ggHHkl0kt1_2016_SR1_13TeV'
p214
aS'wsig_13TeV:hggpdfsmrel_ggHHkl1kt1_2016_SR1_13TeV'
p215
aS'wsig_13TeV:hggpdfsmrel_ggHHkl2p45kt1_2016_SR1_13TeV'
p216
aS'wsig_13TeV:hggpdfsmrel_ggHHkl5kt1_2016_SR1_13TeV'
p217
aS'wsig_13TeV:hggpdfsmrel_ttH_2016_SR1_13TeV'
p218
aS'wsig_13TeV:hggpdfsmrel_VBFH_2017_SR1_13TeV'
p219
aS'wsig_13TeV:hggpdfsmrel_VH_2017_SR1_13TeV'
p220
aS'wsig_13TeV:hggpdfsmrel_ggH_2017_SR1_13TeV'
p221
aS'wsig_13TeV:hggpdfsmrel_ggHHkl0kt1_2017_SR1_13TeV'
p222
aS'wsig_13TeV:hggpdfsmrel_ggHHkl1kt1_2017_SR1_13TeV'
p223
aS'wsig_13TeV:hggpdfsmrel_ggHHkl2p45kt1_2017_SR1_13TeV'
p224
aS'wsig_13TeV:hggpdfsmrel_ggHHkl5kt1_2017_SR1_13TeV'
p225
aS'wsig_13TeV:hggpdfsmrel_ttH_2017_SR1_13TeV'
p226
aS'wsig_13TeV:hggpdfsmrel_VBFH_2018_SR1_13TeV'
p227
aS'wsig_13TeV:hggpdfsmrel_VH_2018_SR1_13TeV'
p228
aS'wsig_13TeV:hggpdfsmrel_ggH_2018_SR1_13TeV'
p229
aS'wsig_13TeV:hggpdfsmrel_ggHHkl0kt1_2018_SR1_13TeV'
p230
aS'wsig_13TeV:hggpdfsmrel_ggHHkl1kt1_2018_SR1_13TeV'
p231
aS'wsig_13TeV:hggpdfsmrel_ggHHkl2p45kt1_2018_SR1_13TeV'
p232
aS'wsig_13TeV:hggpdfsmrel_ggHHkl5kt1_2018_SR1_13TeV'
p233
aS'wsig_13TeV:hggpdfsmrel_ttH_2018_SR1_13TeV'
p234
aS'multipdf:CMS_hgg_SR1_13TeV_bkgshape'
p235
aS'multipdf:roohist_data_mass_SR1'
p236
aI1000
aI1000
aI1000
aI1000
aI1000
aI1000
aI1000
aI1000
aI1000
aI1000
aI1000
aI1000
aI1000
aI1000
aI1000
aI1000
aI1000
aI1000
aI1000
aI1000
aI1000
aI1000
aI1000
aI1000
aF1.0
aI-1
aF0.008673619058150188
aF0.25692169275359356
aF0.020775708380597984
aF0.07755658525191828
aF0.044270086081376246
aF0.017363599467870708
aF0.030786867418210833
aF0.05807235691003623
aF0.010083174182210716
aF0.32427153855039026
aF0.000975449050788074
aF0.22216276975790938
aF0.049635135521709194
aF0.018727270098615665
aF0.036488412882803974
aF0.05457586703646481
aF0.010119524326577188
aF0.4546704593784177
aF0.006552064268465043
aF0.13119607465939898
aF0.07540148580161875
aF0.025976017907968108
aF0.052632344548414915
aF0.09527308406460824
ag136
ag136
aF5.306334329129123e-06
aF0.00014903782085226553
aF4.5044012958528765e-05
aF1.710504821007362e-07
aF5.068826113065617e-08
aF3.216602394314486e-07
aF8.92155743726776e-08
aF2.351814608058144e-05
aF1.205689518797327e-05
aF0.00019529497598485258
aF2.3177234976108e-05
aF0.02205802884416143
aF5.898266856176391e-08
aF4.270014128217686e-08
aF1.0998623891295722e-07
aF2.6904992657734286e-05
aF1.7946125914457443e-05
aF0.0004094649977407913
aF0.0002220801742808912
aF4.6047729397428957e-07
aF1.3223999610342837e-07
aF9.57422796011107e-07
aF2.3245619700814552e-07
aF5.7124926083869405e-05
ag136
ag136
aF0.008673619058150188
aF0.25692169275359356
aF0.020775708380597984
aF0.07755658525191828
aF0.044270086081376246
aF0.017363599467870708
aF0.030786867418210833
aF0.05807235691003623
aF0.010083174182210716
aF0.32427153855039026
aF0.000975449050788074
aF0.22216276975790938
aF0.049635135521709194
aF0.018727270098615665
aF0.036488412882803974
aF0.05457586703646481
aF0.010119524326577188
aF0.4546704593784177
aF0.006552064268465043
aF0.13119607465939898
aF0.07540148580161875
aF0.025976017907968108
aF0.052632344548414915
aF0.09527308406460824
ag136
ag136
aF0.008631194708564131
aF0.25509848508166105
aF0.020604482970481175
aF0.07701820390575974
aF0.043962916699377776
aF0.017242950284129085
aF0.03057538678113249
aF0.05767923960398215
aF0.009903594847609217
aF0.3181820141642991
aF0.0009544843466541305
aF0.21848691737377865
aF0.04871494720597305
aF0.01838578044316088
aF0.0358164107287718
aF0.05360416591475356
aF0.009960715559731041
aF0.4467389909953215
aF0.006518154499911138
aF0.12894253973449302
aF0.07410475996699478
aF0.025543013498225773
aF0.05173039289912946
aF0.09367476903275189
ag136
ag136
aF0.008612757537013689
aF0.25413611253938
aF0.02053059350001194
aF0.0767299639162249
aF0.04379996103152497
aF0.017181095803635783
aF0.03046154004338513
aF0.05747045273844037
aF0.009870470252807158
aF0.3164447007826868
aF0.0009481156074321834
aF0.21757460372216306
aF0.048459065633118754
aF0.018291806854764076
aF0.035630397170949214
aF0.053323927913491706
aF0.009934980224920101
aF0.44530399030285917
aF0.006520443677209142
aF0.12852906743895398
aF0.07386769312624716
aF0.025466006615626233
aF0.05156460258865536
aF0.09339467436950837
ag136
ag136
aF0.00866203468721313
aF0.2566519722876953
aF0.020775708380597984
aF0.07735400488392004
aF0.04416127287983197
aF0.017317569315501033
aF0.030696632286263525
aF0.057811591762521805
aF0.010093144358274199
aF0.32343720866163694
aF0.0009728251161164898
aF0.22185052500926214
aF0.04942238259060794
aF0.018651919252513183
aF0.0363290149134038
aF0.05415724681395175
aF0.010119524326577188
aF0.45364252656315535
aF0.006552064268465043
aF0.13056731350191536
aF0.07505323891209352
aF0.02586699833108531
aF0.05236672881144264
aF0.09439823068906973
ag136
ag136
aF0.008687469325189908
aF0.25578432507658494
aF0.020775708380597984
aF0.07690603916608674
aF0.043919078454045045
aF0.017220105837618075
aF0.030512062651958598
aF0.057123477228491426
aF0.010123768420445583
aF0.3226511891193853
aF0.0010999638205639022
aF0.22147358305340895
aF0.0491789108753016
aF0.018560437322835098
aF0.03613794043968684
aF0.053637905333534845
aF0.010119524326577188
aF0.4524577747672737
aF0.006552064268465043
aF0.12980166753411548
aF0.07462568362859519
aF0.025740504737605686
aF0.05204014313521885
aF0.0936399064610691
ag136
ag136
aF0.008673506476719708
aF0.2567832102375131
aF0.020762139750860397
aF0.07750212581417915
aF0.044241024274144135
aF0.01735381044969713
aF0.030760629874985297
aF0.05799759410046767
aF0.010083052726215536
aF0.32445903994465347
aF0.000975449050788074
aF0.22222862777606187
aF0.04967922783627299
aF0.01874321508118318
aF0.036523912092852814
aF0.054701729732330305
aF0.010121502885798415
aF0.4544952635318914
aF0.006567031900063006
aF0.13100029790893863
aF0.07529755360761177
aF0.02594177134616871
aF0.052543990322246464
aF0.0951179172202312
ag136
ag136
aF0.008673758519547551
aF0.25670551818083354
aF0.020754679994076305
aF0.07744234610022614
aF0.0442080526190811
aF0.01734246526778291
aF0.030733942307571236
aF0.057954350127006934
aF0.01008332463706578
aF0.3243506337015393
aF0.000975449050788074
aF0.22217433842169726
aF0.04964370398816362
aF0.01873105254271608
aF0.036494612921628096
aF0.054635451096978205
aF0.010119563834929053
aF0.4544173051042203
aF0.006552363145774053
aF0.13092700785033823
aF0.07525730910538604
aF0.02592982642890322
aF0.05251097499108873
aF0.0950333521871726
ag136
ag136
aF0.008673547045913662
aF0.25695418325099395
aF0.020777471766605177
aF0.07760813892872603
aF0.044298452373447025
aF0.017373275704051495
aF0.03080883012681305
aF0.05807989466130586
aF0.01008309649339636
aF0.3246349131024642
aF0.000975449050788074
aF0.2223210982365676
aF0.04973922888358938
aF0.018763741584771246
aF0.03657527981823547
aF0.05481181258245939
aF0.010124606243037196
aF0.45467271063823184
aF0.006590508532639176
aF0.13119599764793
aF0.07540386756208223
aF0.025975855987728943
aF0.052632474535306596
aF0.09532500167246372
ag136
ag136
aF0.008673717950353597
aF0.2565345520275804
aF0.020739356196508657
aF0.07733637936988988
aF0.044150651555025656
aF0.017323009081152932
aF0.03068576516687149
aF0.05787215337852372
aF0.010083280869884954
aF0.3241748652173428
aF0.000975449050788074
aF0.22208191158382484
aF0.04958373025009967
aF0.018710536421868183
aF0.036443266602593755
aF0.05452547965636691
aF0.010116460525290699
aF0.4542397981807197
aF0.006528886873291029
aF0.13073138947657917
aF0.0751510396132156
aF0.02589575385156238
aF0.05242253007129082
aF0.09482661310431996
ag136
ag136
aF0.008617312835168776
aF0.25457065543173724
aF0.020659978993073605
aF0.07685845767144368
aF0.04387568856708275
aF0.017216185689523492
aF0.030508744215281627
aF0.057691711650614444
aF0.009964380435508156
aF0.32035319840855364
aF0.0009631888548859804
aF0.22003135162461196
aF0.049022334453380584
aF0.01849902259922966
aF0.03601685681217235
aF0.05394381292266871
aF0.010026740829103997
aF0.45034703003621757
aF0.00650888090646868
aF0.12985944252455142
aF0.0746440565329199
aF0.025737889344904848
aF0.05207374563713608
aF0.09441680480471586
ag136
ag136
aF0.008583658274671876
aF0.25344960353389717
aF0.02057719057505468
aF0.07653249611480759
aF0.04369064492061547
aF0.017143657777279057
aF0.030379485050525054
aF0.05746561951155536
aF0.00991685904334666
aF0.3186872060255195
aF0.0009589676717823644
aF0.21904814403869166
aF0.048778702385539253
aF0.01840833057923181
aF0.03583979730716294
aF0.053677792582435324
aF0.009983509157880733
aF0.4483322181021743
aF0.006484047718915751
aF0.1292854403589703
aF0.0743144756630354
aF0.025626535020043466
aF0.05184303780207086
aF0.09401202111865813
ag136
ag136
aF0.008673619058150188
aF0.2569216927535934
aF0.02077570838059798
aF0.07756388978024097
aF0.0442653995936344
aF0.017363847796149592
aF0.030784252920491403
aF0.05780456387438304
aF0.010083174182210716
aF0.32463818568417724
aF0.000975449050788074
aF0.22217291558475802
aF0.049654837310132656
aF0.01873419368453564
aF0.03649172103462719
aF0.05440852175195544
aF0.010754793110848307
aF0.4541744817930778
aF0.006552064268465042
aF0.13117078437803023
aF0.07539096158625098
aF0.025974140484424087
aF0.05263781538971775
aF0.0947714167122013
ag136
ag136
aF0.008673619058150188
aF0.25622884067039847
aF0.02077570838059798
aF0.07756672412430236
aF0.044281134444281674
aF0.01736216376789683
aF0.03078628445608878
aF0.05781553233584421
aF0.010083174182210716
aF0.3238605079936095
aF0.000975449050788074
aF0.2221431222015931
aF0.04962728068363212
aF0.018728863075610957
aF0.03648594320852803
aF0.05442068342888973
aF0.010119524326577188
aF0.45516787483738447
aF0.006552064268465042
aF0.1311925925895163
aF0.07540553803065207
aF0.025978360624610453
aF0.05262677260125814
aF0.09552377601499172
ag136
ag136
aF0.008673619058150188
aF0.25628059824327304
aF0.02077570838059798
aF0.07748940281965874
aF0.04423673786797355
aF0.017347504526672417
aF0.03072624026602929
aF0.05777774447616086
aF0.010083174182210716
aF0.32427153855039065
aF0.000975449050788074
aF0.2221087322875294
aF0.04960331128234069
aF0.01871434150269163
aF0.03645531606484542
aF0.05440352159045718
aF0.010119524326577188
aF0.454115948913744
aF0.006552064268465042
aF0.13098722772117904
aF0.0753152227143684
aF0.025944371455537872
aF0.052541376244249975
aF0.09402311039801704
ag136
ag136
aF0.008673619058150188
aF0.25697428596436656
aF0.02077570838059798
aF0.07763561488523335
aF0.044311809867693355
aF0.017381072803463665
aF0.030834141255111705
aF0.05821626751336069
aF0.010083174182210716
aF0.3238959570051037
aF0.000975449050788074
aF0.22221849952636338
aF0.049687766856339716
aF0.01874434939181344
aF0.036537176117357184
aF0.054093770831461475
aF0.010754793110848307
aF0.45513338088366095
aF0.006552064268465042
aF0.1313751483563967
aF0.0755203874777492
aF0.026007102921113395
aF0.052688208672061664
aF0.0946334719478376
ag136
ag136
aF0.009387885775821078
aF0.2568130456229796
aF0.02077570838059798
aF0.07755419250063553
aF0.04425551768658968
aF0.01737096298789781
aF0.030803987027185595
aF0.058925909395986686
aF0.010891122146835484
aF0.32424910489049086
aF0.000975449050788074
aF0.22217531451316197
aF0.04965945219275396
aF0.01874391793321206
aF0.0365346290828156
aF0.05428544931116509
aF0.009071824481312243
aF0.4602867587143176
aF0.006552064268465042
aF0.13116256450895564
aF0.0754467776271944
aF0.025976360043143503
aF0.05260074332728926
aF0.09531494534261396
ag136
ag136
aF0.010098276494173603
aF0.2561359647448679
aF0.02077570838059798
aF0.07759630657606793
aF0.04427954909969109
aF0.017369423177842475
aF0.0308126399143364
aF0.05978243936001293
aF0.01125099100194742
aF0.3239809869434512
aF0.0006129912070834062
aF0.22213560914728628
aF0.04959051862110125
aF0.018717337436535957
aF0.03645886271589408
aF0.054951626765563186
aF0.010080881333556299
aF0.4567132808336323
aF0.0007429156482104795
aF0.13117060939750727
aF0.07540131664709317
aF0.025975664291961117
aF0.052576317734670495
aF0.09641417948811097
ag136
ag136
aF0.00877881177058402
aF0.2580231690137116
aF0.02077570838059798
aF0.07738266569684144
aF0.04413977230993444
aF0.0173421412045487
aF0.030749265818600317
aF0.05837936873313915
aF0.009758272614152066
aF0.3202869490173411
aF0.000975449050788074
aF0.2220253135355623
aF0.049585936787900214
aF0.018713552203413166
aF0.03646983524509328
aF0.05448250153428094
aF0.010672017100534148
aF0.45259567546855983
aF0.006552064268465042
aF0.1308577799539001
aF0.07524741659558265
aF0.025917052611506838
aF0.05247146520547345
aF0.0959227706770436
ag136
ag136
aF0.009131921179554183
aF0.2594905989628281
aF0.02445485229022066
aF0.07779047015531942
aF0.0443902556506841
aF0.017396630684454826
aF0.030902182869743076
aF0.05904600845636939
aF0.010705742796060987
aF0.3249970808392564
aF0.0050543885492482475
aF0.22226704407461675
aF0.049719111044065185
aF0.018748329801169927
aF0.03658193852276374
aF0.05436811722614617
aF0.010080881333556299
aF0.46220755279911807
aF0.006552064268465042
aF0.1315293673444051
aF0.07554375133809685
aF0.026153890839531832
aF0.052747672598469
aF0.0939463103502114
ag136
ag136
aF0.007364107766043306
aF0.25365020438814556
aF0.02807951670436883
aF0.07777475247909946
aF0.04439897772217868
aF0.01739401165090431
aF0.030980847273056247
aF0.05929574561770074
aF0.00871234548648771
aF0.32334330904730946
aF0.007956381647860276
aF0.22225306384805352
aF0.049708824984505046
aF0.018736483166805956
aF0.0366386421549184
aF0.052584958236678116
aF0.009260859337523249
aF0.4605684317508866
aF0.0007429156482104795
aF0.13150096063094188
aF0.07557906083656593
aF0.026016347117062785
aF0.052832235890572656
aF0.09556422281221148
ag136
ag136
aF0.009348629939696127
aF0.2558743635619092
aF0.02065125127363182
aF0.07749335690098383
aF0.04413856940321976
aF0.017322733222277717
aF0.030699003319914504
aF0.058128397078078035
aF0.010402927474563931
aF0.32217126830829435
aF0.000975449050788074
aF0.22203813495026684
aF0.04960351925498504
aF0.01874780964425382
aF0.036421640300463035
aF0.05439499452325055
aF0.01092836828831958
aF0.45332305682010937
aF0.006552064268465042
aF0.13082002213386296
aF0.07528106198706358
aF0.025969078110405396
aF0.0524185717497642
aF0.09221992421082985
ag136
ag136
aF0.008673619058150188
aF0.25743166930845157
aF0.02077570838059798
aF0.07755824450129226
aF0.044269332948440904
aF0.017363601991239937
aF0.03078686741821094
aF0.058072356910036205
aF0.010083174182210716
aF0.32427153855039065
aF0.000975449050788074
aF0.2221646387972957
aF0.0496351355217095
aF0.01872786116298882
aF0.03648557126761439
aF0.05457586703646485
aF0.010119524326577188
aF0.4541533090052534
aF0.006552064268465042
aF0.13120243243548418
aF0.0754001054731776
aF0.02597556182027422
aF0.05263234454841529
aF0.09527308406460813
ag136
ag136
aF0.008673619058150188
aF0.2569216927535934
aF0.02077570838059798
aF0.0775546202472898
aF0.044273102317195105
aF0.017363152688241148
aF0.03078686741821094
aF0.058072356910036205
aF0.010083174182210716
aF0.32427153855039065
aF0.000975449050788074
aF0.22216278171409787
aF0.04963435984310348
aF0.01872789971017978
aF0.036488412882804126
aF0.05474265984606052
aF0.010119524326577188
aF0.45417089102430996
aF0.006552064268465042
aF0.13119624825591758
aF0.07539997316379894
aF0.02597659400322446
aF0.05263234454841529
aF0.09549385881538622
ag136
ag136
aF0.008673619058150188
aF0.2563119315965459
aF0.02077570838059798
aF0.07762381020715248
aF0.04429638005499379
aF0.017372306184884476
aF0.030826528240569095
aF0.05780028079282487
aF0.010083174182210716
aF0.3240851655039396
aF0.000975449050788074
aF0.22222360957274073
aF0.049677810214207585
aF0.01873890178704513
aF0.03655752434921021
aF0.05474923388577453
aF0.010119524326577188
aF0.45573387678412697
aF0.006552064268465042
aF0.13124243955709908
aF0.07541769285632753
aF0.026005228562916986
aF0.05267951731768305
aF0.09527308406460813
ag136
ag136
aF0.008673619058150188
aF0.25497754964922
aF0.02077570838059798
aF0.07745518127991768
aF0.04422073173158527
aF0.017360049453132225
aF0.03072351650028119
aF0.05777832734080717
aF0.010083174182210716
aF0.32466610607116725
aF0.000975449050788074
aF0.22205476564075302
aF0.049551553971239795
aF0.0187086427925527
aF0.03640409470787068
aF0.05468174655075808
aF0.010119524326577188
aF0.4546908425778699
aF0.006552064268465042
aF0.13111418810093192
aF0.07536158403018194
aF0.025968528753157135
aF0.052599390221310945
aF0.09524401266110746
ag136
ag136
atp237
ba(lp238
g15
(g16
(dp239
g18
g19
(g20
(I0
tp240
g22
tp241
Rp242
(I1
(I38
tp243
g29
I00
(lp244
g33
ag34
ag35
ag36
ag37
ag38
ag39
ag40
ag41
ag42
ag43
ag44
ag45
ag46
ag47
ag48
ag49
ag50
ag51
ag52
ag53
ag54
ag55
ag56
ag57
ag58
ag59
ag60
ag61
ag62
ag63
ag64
ag65
ag66
ag67
ag68
ag69
ag70
atp245
bsg72
Nstp246
Rp247
a(dp248
S'0.14.1'
p249
(dp250
S'axes'
p251
g14
sS'blocks'
p252
(lp253
(dp254
S'mgr_locs'
p255
c__builtin__
slice
p256
(I0
I38
I1
tp257
Rp258
sS'values'
p259
g93
sasstp260
bsb.