ccopy_reg
_reconstructor
p0
(cpandas.core.frame
DataFrame
p1
c__builtin__
object
p2
Ntp3
Rp4
(dp5
S'_metadata'
p6
(lp7
sS'_typ'
p8
S'dataframe'
p9
sS'_data'
p10
g0
(cpandas.core.internals
BlockManager
p11
g2
Ntp12
Rp13
((lp14
cpandas.core.indexes.base
_new_Index
p15
(cpandas.core.indexes.base
Index
p16
(dp17
S'data'
p18
cnumpy.core.multiarray
_reconstruct
p19
(cnumpy
ndarray
p20
(I0
tp21
S'b'
p22
tp23
Rp24
(I1
(I38
tp25
cnumpy
dtype
p26
(S'O8'
p27
I0
I1
tp28
Rp29
(I3
S'|'
p30
NNNI-1
I-1
I63
tp31
bI00
(lp32
S'year'
p33
aS'type'
p34
aS'procOriginal'
p35
aS'proc'
p36
aS'proc_s0'
p37
aS'cat'
p38
aS'inputWSFile'
p39
aS'nominalDataName'
p40
aS'modelWSFile'
p41
aS'model'
p42
aS'rate'
p43
aS'nominal_yield'
p44
aS'sumw2'
p45
aS'nominal_yield_COWCorr'
p46
aS'weight_electron_veto_sf_Diphoton_Photon_up_yield'
p47
aS'weight_electron_veto_sf_Diphoton_Photon_down_yield'
p48
aS'weight_electron_id_sf_SelectedElectron_up_yield'
p49
aS'weight_electron_id_sf_SelectedElectron_down_yield'
p50
aS'weight_muon_id_sfSTAT_SelectedMuon_up_yield'
p51
aS'weight_muon_id_sfSTAT_SelectedMuon_down_yield'
p52
aS'weight_muon_id_sfSYS_SelectedMuon_up_yield'
p53
aS'weight_muon_id_sfSYS_SelectedMuon_down_yield'
p54
aS'weight_trigger_sf_up_yield'
p55
aS'weight_trigger_sf_down_yield'
p56
aS'JER_up_yield'
p57
aS'JER_down_yield'
p58
aS'JES_up_yield'
p59
aS'JES_down_yield'
p60
aS'MET_JER_up_yield'
p61
aS'MET_JER_down_yield'
p62
aS'MET_JES_up_yield'
p63
aS'MET_JES_down_yield'
p64
aS'MET_Unclustered_up_yield'
p65
aS'MET_Unclustered_down_yield'
p66
aS'Muon_pt_up_yield'
p67
aS'Muon_pt_down_yield'
p68
aS'Tau_pt_up_yield'
p69
aS'Tau_pt_down_yield'
p70
atp71
bsS'name'
p72
Nstp73
Rp74
ag15
(cpandas.core.indexes.numeric
Int64Index
p75
(dp76
g18
g19
(g20
(I0
tp77
g22
tp78
Rp79
(I1
(I26
tp80
g26
(S'i8'
p81
I0
I1
tp82
Rp83
(I3
S'<'
p84
NNNI-1
I-1
I0
tp85
bI00
S'\x00\x00\x00\x00\x00\x00\x00\x00\x01\x00\x00\x00\x00\x00\x00\x00\x02\x00\x00\x00\x00\x00\x00\x00\x03\x00\x00\x00\x00\x00\x00\x00\x04\x00\x00\x00\x00\x00\x00\x00\x05\x00\x00\x00\x00\x00\x00\x00\x06\x00\x00\x00\x00\x00\x00\x00\x07\x00\x00\x00\x00\x00\x00\x00\x08\x00\x00\x00\x00\x00\x00\x00\t\x00\x00\x00\x00\x00\x00\x00\n\x00\x00\x00\x00\x00\x00\x00\x0b\x00\x00\x00\x00\x00\x00\x00\x0c\x00\x00\x00\x00\x00\x00\x00\r\x00\x00\x00\x00\x00\x00\x00\x0e\x00\x00\x00\x00\x00\x00\x00\x0f\x00\x00\x00\x00\x00\x00\x00\x10\x00\x00\x00\x00\x00\x00\x00\x11\x00\x00\x00\x00\x00\x00\x00\x12\x00\x00\x00\x00\x00\x00\x00\x13\x00\x00\x00\x00\x00\x00\x00\x14\x00\x00\x00\x00\x00\x00\x00\x15\x00\x00\x00\x00\x00\x00\x00\x16\x00\x00\x00\x00\x00\x00\x00\x17\x00\x00\x00\x00\x00\x00\x00\x18\x00\x00\x00\x00\x00\x00\x00\x19\x00\x00\x00\x00\x00\x00\x00'
p86
tp87
bsg72
Nstp88
Rp89
a(lp90
g19
(g20
(I0
tp91
g22
tp92
Rp93
(I1
(I38
I26
tp94
g29
I00
(lp95
S'2016'
p96
ag96
ag96
ag96
ag96
ag96
ag96
ag96
aS'2017'
p97
ag97
ag97
ag97
ag97
ag97
ag97
ag97
aS'2018'
p98
ag98
ag98
ag98
ag98
ag98
ag98
ag98
aS'merged'
p99
ag99
aS'sig'
p100
ag100
ag100
ag100
ag100
ag100
ag100
ag100
ag100
ag100
ag100
ag100
ag100
ag100
ag100
ag100
ag100
ag100
ag100
ag100
ag100
ag100
ag100
ag100
aS'bkg'
p101
ag18
aS'VBFH'
p102
aS'VH'
p103
aS'ggH'
p104
aS'ggHHkl0kt1'
p105
aS'ggHHkl1kt1'
p106
aS'ggHHkl2p45kt1'
p107
aS'ggHHkl5kt1'
p108
aS'ttH'
p109
ag102
ag103
ag104
ag105
ag106
ag107
ag108
ag109
ag102
ag103
ag104
ag105
ag106
ag107
ag108
ag109
aS'bkg_mass'
p110
aS'data_obs'
p111
aS'VBFH_2016_hgg'
p112
aS'VH_2016_hgg'
p113
aS'ggH_2016_hgg'
p114
aS'ggHHkl0kt1_2016_hgg'
p115
aS'ggHHkl1kt1_2016_hgg'
p116
aS'ggHHkl2p45kt1_2016_hgg'
p117
aS'ggHHkl5kt1_2016_hgg'
p118
aS'ttH_2016_hgg'
p119
aS'VBFH_2017_hgg'
p120
aS'VH_2017_hgg'
p121
aS'ggH_2017_hgg'
p122
aS'ggHHkl0kt1_2017_hgg'
p123
aS'ggHHkl1kt1_2017_hgg'
p124
aS'ggHHkl2p45kt1_2017_hgg'
p125
aS'ggHHkl5kt1_2017_hgg'
p126
aS'ttH_2017_hgg'
p127
aS'VBFH_2018_hgg'
p128
aS'VH_2018_hgg'
p129
aS'ggH_2018_hgg'
p130
aS'ggHHkl0kt1_2018_hgg'
p131
aS'ggHHkl1kt1_2018_hgg'
p132
aS'ggHHkl2p45kt1_2018_hgg'
p133
aS'ggHHkl5kt1_2018_hgg'
p134
aS'ttH_2018_hgg'
p135
ag110
ag111
ag102
ag103
ag104
ag105
ag106
ag107
ag108
ag109
ag102
ag103
ag104
ag105
ag106
ag107
ag108
ag109
ag102
ag103
ag104
ag105
ag106
ag107
ag108
ag109
aS'-'
p136
ag136
aS'SR2'
p137
ag137
ag137
ag137
ag137
ag137
ag137
ag137
ag137
ag137
ag137
ag137
ag137
ag137
ag137
ag137
ag137
ag137
ag137
ag137
ag137
ag137
ag137
ag137
ag137
ag137
aS'/home/users/fsetti/HHggTauTau/coupling_scan/CMSSW_10_2_13/src/flashggFinalFit/files_systs/09Apr2022_kls//ws_signal_2016/output_VBFH_M125_13TeV_pythia8_VBFH.root'
p138
aS'/home/users/fsetti/HHggTauTau/coupling_scan/CMSSW_10_2_13/src/flashggFinalFit/files_systs/09Apr2022_kls//ws_signal_2016/output_VH_M125_13TeV_pythia8_VH.root'
p139
aS'/home/users/fsetti/HHggTauTau/coupling_scan/CMSSW_10_2_13/src/flashggFinalFit/files_systs/09Apr2022_kls//ws_signal_2016/output_ggH_M125_13TeV_pythia8_ggH.root'
p140
aS'/home/users/fsetti/HHggTauTau/coupling_scan/CMSSW_10_2_13/src/flashggFinalFit/files_systs/09Apr2022_kls//ws_signal_2016/output_ggHHkl0kt1_M125_13TeV_pythia8_ggHHkl0kt1.root'
p141
aS'/home/users/fsetti/HHggTauTau/coupling_scan/CMSSW_10_2_13/src/flashggFinalFit/files_systs/09Apr2022_kls//ws_signal_2016/output_ggHHkl1kt1_M125_13TeV_pythia8_ggHHkl1kt1.root'
p142
aS'/home/users/fsetti/HHggTauTau/coupling_scan/CMSSW_10_2_13/src/flashggFinalFit/files_systs/09Apr2022_kls//ws_signal_2016/output_ggHHkl2p45kt1_M125_13TeV_pythia8_ggHHkl2p45kt1.root'
p143
aS'/home/users/fsetti/HHggTauTau/coupling_scan/CMSSW_10_2_13/src/flashggFinalFit/files_systs/09Apr2022_kls//ws_signal_2016/output_ggHHkl5kt1_M125_13TeV_pythia8_ggHHkl5kt1.root'
p144
aS'/home/users/fsetti/HHggTauTau/coupling_scan/CMSSW_10_2_13/src/flashggFinalFit/files_systs/09Apr2022_kls//ws_signal_2016/output_ttH_M125_13TeV_pythia8_ttH.root'
p145
aS'/home/users/fsetti/HHggTauTau/coupling_scan/CMSSW_10_2_13/src/flashggFinalFit/files_systs/09Apr2022_kls//ws_signal_2017/output_VBFH_M125_13TeV_pythia8_VBFH.root'
p146
aS'/home/users/fsetti/HHggTauTau/coupling_scan/CMSSW_10_2_13/src/flashggFinalFit/files_systs/09Apr2022_kls//ws_signal_2017/output_VH_M125_13TeV_pythia8_VH.root'
p147
aS'/home/users/fsetti/HHggTauTau/coupling_scan/CMSSW_10_2_13/src/flashggFinalFit/files_systs/09Apr2022_kls//ws_signal_2017/output_ggH_M125_13TeV_pythia8_ggH.root'
p148
aS'/home/users/fsetti/HHggTauTau/coupling_scan/CMSSW_10_2_13/src/flashggFinalFit/files_systs/09Apr2022_kls//ws_signal_2017/output_ggHHkl0kt1_M125_13TeV_pythia8_ggHHkl0kt1.root'
p149
aS'/home/users/fsetti/HHggTauTau/coupling_scan/CMSSW_10_2_13/src/flashggFinalFit/files_systs/09Apr2022_kls//ws_signal_2017/output_ggHHkl1kt1_M125_13TeV_pythia8_ggHHkl1kt1.root'
p150
aS'/home/users/fsetti/HHggTauTau/coupling_scan/CMSSW_10_2_13/src/flashggFinalFit/files_systs/09Apr2022_kls//ws_signal_2017/output_ggHHkl2p45kt1_M125_13TeV_pythia8_ggHHkl2p45kt1.root'
p151
aS'/home/users/fsetti/HHggTauTau/coupling_scan/CMSSW_10_2_13/src/flashggFinalFit/files_systs/09Apr2022_kls//ws_signal_2017/output_ggHHkl5kt1_M125_13TeV_pythia8_ggHHkl5kt1.root'
p152
aS'/home/users/fsetti/HHggTauTau/coupling_scan/CMSSW_10_2_13/src/flashggFinalFit/files_systs/09Apr2022_kls//ws_signal_2017/output_ttH_M125_13TeV_pythia8_ttH.root'
p153
aS'/home/users/fsetti/HHggTauTau/coupling_scan/CMSSW_10_2_13/src/flashggFinalFit/files_systs/09Apr2022_kls//ws_signal_2018/output_VBFH_M125_13TeV_pythia8_VBFH.root'
p154
aS'/home/users/fsetti/HHggTauTau/coupling_scan/CMSSW_10_2_13/src/flashggFinalFit/files_systs/09Apr2022_kls//ws_signal_2018/output_VH_M125_13TeV_pythia8_VH.root'
p155
aS'/home/users/fsetti/HHggTauTau/coupling_scan/CMSSW_10_2_13/src/flashggFinalFit/files_systs/09Apr2022_kls//ws_signal_2018/output_ggH_M125_13TeV_pythia8_ggH.root'
p156
aS'/home/users/fsetti/HHggTauTau/coupling_scan/CMSSW_10_2_13/src/flashggFinalFit/files_systs/09Apr2022_kls//ws_signal_2018/output_ggHHkl0kt1_M125_13TeV_pythia8_ggHHkl0kt1.root'
p157
aS'/home/users/fsetti/HHggTauTau/coupling_scan/CMSSW_10_2_13/src/flashggFinalFit/files_systs/09Apr2022_kls//ws_signal_2018/output_ggHHkl1kt1_M125_13TeV_pythia8_ggHHkl1kt1.root'
p158
aS'/home/users/fsetti/HHggTauTau/coupling_scan/CMSSW_10_2_13/src/flashggFinalFit/files_systs/09Apr2022_kls//ws_signal_2018/output_ggHHkl2p45kt1_M125_13TeV_pythia8_ggHHkl2p45kt1.root'
p159
aS'/home/users/fsetti/HHggTauTau/coupling_scan/CMSSW_10_2_13/src/flashggFinalFit/files_systs/09Apr2022_kls//ws_signal_2018/output_ggHHkl5kt1_M125_13TeV_pythia8_ggHHkl5kt1.root'
p160
aS'/home/users/fsetti/HHggTauTau/coupling_scan/CMSSW_10_2_13/src/flashggFinalFit/files_systs/09Apr2022_kls//ws_signal_2018/output_ttH_M125_13TeV_pythia8_ttH.root'
p161
ag136
ag136
aS'VBFH_125_13TeV_SR2'
p162
aS'VH_125_13TeV_SR2'
p163
aS'ggH_125_13TeV_SR2'
p164
aS'ggHHkl0kt1_125_13TeV_SR2'
p165
aS'ggHHkl1kt1_125_13TeV_SR2'
p166
aS'ggHHkl2p45kt1_125_13TeV_SR2'
p167
aS'ggHHkl5kt1_125_13TeV_SR2'
p168
aS'ttH_125_13TeV_SR2'
p169
aS'VBFH_125_13TeV_SR2'
p170
aS'VH_125_13TeV_SR2'
p171
aS'ggH_125_13TeV_SR2'
p172
aS'ggHHkl0kt1_125_13TeV_SR2'
p173
aS'ggHHkl1kt1_125_13TeV_SR2'
p174
aS'ggHHkl2p45kt1_125_13TeV_SR2'
p175
aS'ggHHkl5kt1_125_13TeV_SR2'
p176
aS'ttH_125_13TeV_SR2'
p177
aS'VBFH_125_13TeV_SR2'
p178
aS'VH_125_13TeV_SR2'
p179
aS'ggH_125_13TeV_SR2'
p180
aS'ggHHkl0kt1_125_13TeV_SR2'
p181
aS'ggHHkl1kt1_125_13TeV_SR2'
p182
aS'ggHHkl2p45kt1_125_13TeV_SR2'
p183
aS'ggHHkl5kt1_125_13TeV_SR2'
p184
aS'ttH_125_13TeV_SR2'
p185
ag136
ag136
aS'./Models/signal/CMS-HGG_sigfit_packaged_SR2.root'
p186
aS'./Models/signal/CMS-HGG_sigfit_packaged_SR2.root'
p187
aS'./Models/signal/CMS-HGG_sigfit_packaged_SR2.root'
p188
aS'./Models/signal/CMS-HGG_sigfit_packaged_SR2.root'
p189
aS'./Models/signal/CMS-HGG_sigfit_packaged_SR2.root'
p190
aS'./Models/signal/CMS-HGG_sigfit_packaged_SR2.root'
p191
aS'./Models/signal/CMS-HGG_sigfit_packaged_SR2.root'
p192
aS'./Models/signal/CMS-HGG_sigfit_packaged_SR2.root'
p193
aS'./Models/signal/CMS-HGG_sigfit_packaged_SR2.root'
p194
aS'./Models/signal/CMS-HGG_sigfit_packaged_SR2.root'
p195
aS'./Models/signal/CMS-HGG_sigfit_packaged_SR2.root'
p196
aS'./Models/signal/CMS-HGG_sigfit_packaged_SR2.root'
p197
aS'./Models/signal/CMS-HGG_sigfit_packaged_SR2.root'
p198
aS'./Models/signal/CMS-HGG_sigfit_packaged_SR2.root'
p199
aS'./Models/signal/CMS-HGG_sigfit_packaged_SR2.root'
p200
aS'./Models/signal/CMS-HGG_sigfit_packaged_SR2.root'
p201
aS'./Models/signal/CMS-HGG_sigfit_packaged_SR2.root'
p202
aS'./Models/signal/CMS-HGG_sigfit_packaged_SR2.root'
p203
aS'./Models/signal/CMS-HGG_sigfit_packaged_SR2.root'
p204
aS'./Models/signal/CMS-HGG_sigfit_packaged_SR2.root'
p205
aS'./Models/signal/CMS-HGG_sigfit_packaged_SR2.root'
p206
aS'./Models/signal/CMS-HGG_sigfit_packaged_SR2.root'
p207
aS'./Models/signal/CMS-HGG_sigfit_packaged_SR2.root'
p208
aS'./Models/signal/CMS-HGG_sigfit_packaged_SR2.root'
p209
aS'./Models/background/CMS-HGG_multipdf_SR2.root'
p210
ag210
aS'wsig_13TeV:hggpdfsmrel_VBFH_2016_SR2_13TeV'
p211
aS'wsig_13TeV:hggpdfsmrel_VH_2016_SR2_13TeV'
p212
aS'wsig_13TeV:hggpdfsmrel_ggH_2016_SR2_13TeV'
p213
aS'wsig_13TeV:hggpdfsmrel_ggHHkl0kt1_2016_SR2_13TeV'
p214
aS'wsig_13TeV:hggpdfsmrel_ggHHkl1kt1_2016_SR2_13TeV'
p215
aS'wsig_13TeV:hggpdfsmrel_ggHHkl2p45kt1_2016_SR2_13TeV'
p216
aS'wsig_13TeV:hggpdfsmrel_ggHHkl5kt1_2016_SR2_13TeV'
p217
aS'wsig_13TeV:hggpdfsmrel_ttH_2016_SR2_13TeV'
p218
aS'wsig_13TeV:hggpdfsmrel_VBFH_2017_SR2_13TeV'
p219
aS'wsig_13TeV:hggpdfsmrel_VH_2017_SR2_13TeV'
p220
aS'wsig_13TeV:hggpdfsmrel_ggH_2017_SR2_13TeV'
p221
aS'wsig_13TeV:hggpdfsmrel_ggHHkl0kt1_2017_SR2_13TeV'
p222
aS'wsig_13TeV:hggpdfsmrel_ggHHkl1kt1_2017_SR2_13TeV'
p223
aS'wsig_13TeV:hggpdfsmrel_ggHHkl2p45kt1_2017_SR2_13TeV'
p224
aS'wsig_13TeV:hggpdfsmrel_ggHHkl5kt1_2017_SR2_13TeV'
p225
aS'wsig_13TeV:hggpdfsmrel_ttH_2017_SR2_13TeV'
p226
aS'wsig_13TeV:hggpdfsmrel_VBFH_2018_SR2_13TeV'
p227
aS'wsig_13TeV:hggpdfsmrel_VH_2018_SR2_13TeV'
p228
aS'wsig_13TeV:hggpdfsmrel_ggH_2018_SR2_13TeV'
p229
aS'wsig_13TeV:hggpdfsmrel_ggHHkl0kt1_2018_SR2_13TeV'
p230
aS'wsig_13TeV:hggpdfsmrel_ggHHkl1kt1_2018_SR2_13TeV'
p231
aS'wsig_13TeV:hggpdfsmrel_ggHHkl2p45kt1_2018_SR2_13TeV'
p232
aS'wsig_13TeV:hggpdfsmrel_ggHHkl5kt1_2018_SR2_13TeV'
p233
aS'wsig_13TeV:hggpdfsmrel_ttH_2018_SR2_13TeV'
p234
aS'multipdf:CMS_hgg_SR2_13TeV_bkgshape'
p235
aS'multipdf:roohist_data_mass_SR2'
p236
aI1000
aI1000
aI1000
aI1000
aI1000
aI1000
aI1000
aI1000
aI1000
aI1000
aI1000
aI1000
aI1000
aI1000
aI1000
aI1000
aI1000
aI1000
aI1000
aI1000
aI1000
aI1000
aI1000
aI1000
aF1.0
aI-1
aF0.028334046124417627
aF0.24746134245386414
aF0.055023074032459464
aF0.0479804812572489
aF0.017003356827912937
aF0.004853518026831509
aF0.02435962801587626
aF0.08878550123670126
aF0.029669176689712674
aF0.3258436939820452
aF0.09585964738870809
aF0.029868915148329345
aF0.01680545917751202
aF0.0045808473020961474
aF0.02754272833443226
aF0.09004953027080696
aF0.04294716004075552
aF0.45603102282113994
aF0.15163858425540466
aF0.058285639641048936
aF0.02911510342401699
aF0.007771955155691324
aF0.04198584378244641
aF0.14030091821282056
ag136
ag136
aF2.9514186064764696e-05
aF0.0001519737833127604
aF0.00020323721047552275
aF0.0001726446081843506
aF1.8604296311559918e-08
aF4.7547479230324745e-09
aF6.9169512622402e-08
aF4.091152272749018e-05
aF6.686675121022511e-05
aF0.00020173852023664041
aF0.0009926770411168896
aF5.752486385683897e-08
aF1.877101940710096e-08
aF7.391119417118565e-09
aF8.021806978709e-08
aF4.404810810386048e-05
aF0.00014279476269530794
aF0.00042009287043511787
aF0.0017424702216212343
aF1.9531062253516828e-07
aF4.857181864407368e-08
aF2.3818017454797383e-07
aF1.806530611566795e-07
aF0.00010067589051258015
ag136
ag136
aF0.028334046124417627
aF0.24746134245386414
aF0.055023074032459464
aF0.0479804812572489
aF0.017003356827912937
aF0.004853518026831509
aF0.02435962801587626
aF0.08878550123670126
aF0.029669176689712674
aF0.3258436939820452
aF0.09585964738870809
aF0.029868915148329345
aF0.01680545917751202
aF0.0045808473020961474
aF0.02754272833443226
aF0.09004953027080696
aF0.04294716004075552
aF0.45603102282113994
aF0.15163858425540466
aF0.058285639641048936
aF0.02911510342401699
aF0.007771955155691324
aF0.04198584378244641
aF0.14030091821282056
ag136
ag136
aF0.028136748485884006
aF0.24555482928717476
aF0.054602939956702734
aF0.04764507122798656
aF0.01687733843532995
aF0.004817607706930845
aF0.024188275322446037
aF0.08809301308824104
aF0.029135241094945162
aF0.31925983145482867
aF0.09408695334897997
aF0.029279081306471978
aF0.016473115971244786
aF0.004489885980655966
aF0.027014893744851793
aF0.08838616525136529
aF0.042185702780050134
aF0.4473241694720886
aF0.1492143160839453
aF0.057195556144192916
aF0.0285683347891407
aF0.007630804694285853
aF0.041226165132065826
aF0.1380166647926829
ag136
ag136
aF0.02805305289845641
aF0.24450009035916279
aF0.05437433850518691
aF0.04746958920675187
aF0.01680607631741527
aF0.004797729951113095
aF0.02408921899028016
aF0.0877152362825144
aF0.02900324407314995
aF0.3173471913550716
aF0.09364161667363571
aF0.029102377460415548
aF0.016373120659368075
aF0.004462705536185542
aF0.026858126946132165
aF0.08793968349122504
aF0.04203701403454962
aF0.44566837096978035
aF0.14876188671193327
aF0.05698805295987146
aF0.02846469392895662
aF0.007602936565009323
aF0.04108268064117764
aF0.13762420465914124
ag136
ag136
aF0.028319676173572655
aF0.24724493086897192
aF0.05499604368995033
aF0.04794234375307396
aF0.01698552836138899
aF0.004849376064752935
aF0.02431426612487915
aF0.08839822075535714
aF0.029643749746903265
aF0.32523403697314973
aF0.09581612870702444
aF0.02979099610020614
aF0.016767549583207173
aF0.0045728237120075555
aF0.027445870701150687
aF0.08947671589299788
aF0.04290219080258341
aF0.45544285046915894
aF0.1518570476833477
aF0.058115806518420694
aF0.029040145559838727
aF0.007759862138376782
aF0.04181574004026959
aF0.13928161219911392
ag136
ag136
aF0.02828901564842203
aF0.24678787859111173
aF0.05486898058814361
aF0.047807116848130424
aF0.016929929926853916
aF0.004837634278606456
aF0.02419268930441543
aF0.0875451187639117
aF0.029615545914110683
aF0.32462290820713485
aF0.09590316607039176
aF0.02969217270274692
aF0.016718284843222058
aF0.004561587682719446
aF0.027318918105584424
aF0.08868055540763643
aF0.04284682514194377
aF0.45484146042273654
aF0.15203274700900898
aF0.05789229676733026
aF0.028941882389362066
aF0.007742839901807541
aF0.041586093833228255
aF0.13802890107504573
ag136
ag136
aF0.02836684132119983
aF0.2474115080410835
aF0.055048026835454796
aF0.047963894482277974
aF0.01699672438061298
aF0.004851875347741265
aF0.024343452147112386
aF0.08865750774183831
aF0.02970444017361904
aF0.3259836165980581
aF0.0958587515563405
aF0.02989360808468609
aF0.01681692563991182
aF0.004583669345683416
aF0.027569387131935175
aF0.09019282821662401
aF0.04294129242769795
aF0.455859473656355
aF0.15163858425540466
aF0.05822805133763327
aF0.029090698197238245
aF0.007767363983868301
aF0.04192431146871035
aF0.14010103972381444
ag136
ag136
aF0.02835962345391366
aF0.24736794110625798
aF0.05504277812411051
aF0.04794346786723525
aF0.016988202464471597
aF0.004849702597724989
aF0.024324567910941623
aF0.08856430304563291
aF0.02969737444722898
aF0.325900516709832
aF0.0958394488689252
aF0.029878094332946036
aF0.016809645144371745
aF0.004581867908777044
aF0.027549932156692856
aF0.09009126894819545
aF0.042934951359572995
aF0.4557839277070713
aF0.15163858425540466
aF0.058203586544663816
aF0.02907997913866907
aF0.007765342300538135
aF0.04190024254674551
aF0.13999817884908483
ag136
ag136
aF0.028367877898737955
aF0.24747625335021847
aF0.05503600963189926
aF0.0479990118789898
aF0.01701132370270429
aF0.004855412255054723
aF0.024376327055988103
aF0.08884086749110373
aF0.029704899191515706
aF0.32609905907796866
aF0.095894999354596
aF0.02991918329599088
aF0.016828833829157962
aF0.004586433131963823
aF0.027603171938371487
aF0.09035804724128912
aF0.042946707535647416
aF0.4560450188257794
aF0.15163858425540466
aF0.058291199032950755
aF0.029117987456450056
aF0.007772736194519851
aF0.04198972661118423
aF0.14033949991207018
ag136
ag136
aF0.028358586738015213
aF0.24730344694648418
aF0.055054766733168434
aF0.04790836200168098
aF0.016973608982777617
aF0.004846166828231223
aF0.024291701537377912
aF0.0883813443982068
aF0.02969691528502927
aF0.32578539455222544
aF0.09580320130432446
aF0.029852528496043446
aF0.016797743058521063
aF0.004579104927159932
aF0.027516161359796686
aF0.08992617689861764
aF0.04292951414998718
aF0.45559854153882123
aF0.15163858425540466
aF0.058140462093285265
aF0.029052700631381257
aF0.0077599717339076335
aF0.04183484981890312
aF0.1397601064106056
ag136
ag136
aF0.028112900645088503
aF0.245546107834754
aF0.05437176004165189
aF0.04750990095572154
aF0.016815827069006035
aF0.004802582997042923
aF0.024082551796098448
aF0.08801569788467496
aF0.029378901627950465
aF0.32184208837912864
aF0.09537008743180303
aF0.029417081955211415
aF0.016557495658544835
aF0.004517252433084024
aF0.027099451034561114
aF0.0889568003150121
aF0.04243284136883332
aF0.45084311257770365
aF0.1498720867617092
aF0.057578836826748234
aF0.02877734861998945
aF0.007668875378916052
aF0.04145018356770207
aF0.13879838963088656
ag136
ag136
aF0.028003541185902814
aF0.24454251153927123
aF0.05410574619992272
aF0.04731024837621115
aF0.016742011147917783
aF0.004781486675502569
aF0.023978743776594105
aF0.08767207755424136
aF0.029245164624333263
aF0.320065476905774
aF0.09489218464083723
aF0.029260422945018783
aF0.016469589245402823
aF0.0044930925861037295
aF0.026955010455675256
aF0.08852409814164995
aF0.04222870417748134
aF0.448767011362068
aF0.14919561655952734
aF0.05731293130731978
aF0.028645724262938894
aF0.007632719779800141
aF0.04126182152779199
aF0.1381477402050408
ag136
ag136
aF0.028937137804863313
aF0.24746134245386406
aF0.05656599647388122
aF0.04796429802387996
aF0.01699979766171351
aF0.004849964109828246
aF0.024358301832535647
aF0.08908317284956378
aF0.03021635469418103
aF0.3248238783865402
aF0.0913371920544895
aF0.029859464538017993
aF0.016801097619095432
aF0.004573836769247173
aF0.027551051926197324
aF0.09001325893572022
aF0.0414818456846527
aF0.45712867758401327
aF0.15163858425540463
aF0.058324618513340906
aF0.02911945424932712
aF0.007772525807873361
aF0.041987567439416576
aF0.13953568424953539
ag136
ag136
aF0.028334046124417624
aF0.248154194537059
aF0.055023074032459464
aF0.04797444844155681
aF0.016992352163673966
aF0.004854392344614556
aF0.024352796893960197
aF0.08992878972144851
aF0.029669176689712674
aF0.3269111413617013
aF0.09585964738870809
aF0.029865819159476056
aF0.01680312622602406
aF0.004578451528028689
aF0.027540916591109226
aF0.09030878019326996
aF0.04294716004075552
aF0.45396185628468316
aF0.14636550629895156
aF0.05826829630746167
aF0.029115067422476944
aF0.007775278529501916
aF0.0419828999043735
aF0.13995419068197337
ag136
ag136
aF0.028334046124417624
aF0.24875608192457907
aF0.05847442136444202
aF0.04794926155823482
aF0.01699100386869571
aF0.004853760875811553
aF0.02432824908325882
aF0.08930783942464635
aF0.029669176689712674
aF0.325241515121252
aF0.0913371920544895
aF0.0298717492955759
aF0.016812463488096986
aF0.004580429834270163
aF0.02752963600729362
aF0.08858865300840574
aF0.042079305833267716
aF0.45393668637567863
aF0.14602582718891205
aF0.05831567762891069
aF0.029105705663346193
aF0.00777473740389996
aF0.041836185627322074
aF0.13956385459737572
ag136
ag136
aF0.02838082054456114
aF0.2474087492430909
aF0.05656599647388122
aF0.04801269032337106
aF0.017006711063595904
aF0.0048389377986807055
aF0.024392728931078845
aF0.0925891861409086
aF0.02964563587429654
aF0.3258621398552465
aF0.09585964738870809
aF0.029851548724875963
aF0.01677519671140965
aF0.00457459029851764
aF0.02755760622215093
aF0.09104307998395889
aF0.04062163781173879
aF0.45477348540840407
aF0.14636550629895156
aF0.058273187737090476
aF0.029107647975181516
aF0.007699072928074309
aF0.042166181166859704
aF0.14248439177278038
ag136
ag136
aF0.029387119292476345
aF0.24965978222237079
aF0.05566377751739018
aF0.047937426924459584
aF0.017009211968792334
aF0.004845006490054586
aF0.024344830943395977
aF0.08948749415288236
aF0.03063688813379617
aF0.32515507734544175
aF0.1043043559692352
aF0.02992577446147726
aF0.016783074670622216
aF0.004574004852067204
aF0.02757221732982439
aF0.08941372229918777
aF0.04575397589873076
aF0.4476106478422245
aF0.1346920693944978
aF0.058359707803511796
aF0.02913886062695156
aF0.007800542908130903
aF0.04209561592566002
aF0.14179528961970175
ag136
ag136
aF0.026721357587601646
aF0.24651325068521476
aF0.05495688854152754
aF0.047975761776337444
aF0.016984553117176376
aF0.004845357550007248
aF0.024322357944709536
aF0.0857792633033406
aF0.02820346798707727
aF0.32641502876957795
aF0.0996316425363419
aF0.029833963843185776
aF0.016838610311324956
aF0.00458324595463032
aF0.027563524670046077
aF0.09032249188051639
aF0.044519095353123546
aF0.45306763983954246
aF0.14613360029461667
aF0.05828930579360106
aF0.029106392504031978
aF0.007762795313616558
aF0.04202977753810617
aF0.13854093820174831
ag136
ag136
aF0.030717199286207846
aF0.2486499418478573
aF0.06351839536164161
aF0.047931244725047034
aF0.017057543335741162
aF0.004837879593120765
aF0.024245935868687753
aF0.0883267717555076
aF0.03304169598727068
aF0.3334901721030792
aF0.10780606805014259
aF0.029904190459058698
aF0.016770483054607738
aF0.004576608344558319
aF0.02750973471815906
aF0.08983915392319472
aF0.04391317207581635
aF0.4493586179220257
aF0.1350099210831011
aF0.05818458115587817
aF0.029159767192577696
aF0.007758876242311108
aF0.042082515264447846
aF0.13677064879727147
ag136
ag136
aF0.03100875097115743
aF0.25092224951055164
aF0.05108817195972521
aF0.047998988410022134
aF0.016966762482536365
aF0.004846035298221427
aF0.024368066824655196
aF0.08870280165213028
aF0.033259248765859124
aF0.32417616047521025
aF0.10626480863310438
aF0.029884310389661776
aF0.016794172553069895
aF0.004579042618882477
aF0.027601713716503096
aF0.0902475625836419
aF0.051327905221377916
aF0.45218305556584076
aF0.15113723427580614
aF0.058321235918966714
aF0.029131174918456702
aF0.007652752234104307
aF0.042001851147707624
aF0.14168204033941573
ag136
ag136
aF0.03610681059437088
aF0.2598122119888463
aF0.056247257010815205
aF0.048120225672419525
aF0.017002309717181193
aF0.004862214859471783
aF0.024364741351288993
aF0.0917586879472945
aF0.03751784624311973
aF0.32968514304366975
aF0.10167389750261074
aF0.029874411975184787
aF0.01682767904184121
aF0.0045922009994288845
aF0.02772562704016679
aF0.0912340384186312
aF0.04976070773038727
aF0.45677445051805904
aF0.17953253423861026
aF0.058571432969523864
aF0.029177051184894425
aF0.007768564622131859
aF0.04220138548106969
aF0.1383953628604947
ag136
ag136
aF0.02605525537531252
aF0.2495650474347361
aF0.057552453397846114
aF0.04779903933052293
aF0.01700964029393113
aF0.004852865908377132
aF0.02430595051142483
aF0.08878969526056828
aF0.02752502666601597
aF0.3298300639907073
aF0.10778819492223804
aF0.029875074812150522
aF0.016775335040892958
aF0.004518244669922137
aF0.02756339373954865
aF0.09191666843257038
aF0.04140536762004164
aF0.4528335363644994
aF0.15161081004238
aF0.05836990142475837
aF0.029150644050037613
aF0.0076498926038183306
aF0.04204706365478205
aF0.1398129158021997
ag136
ag136
aF0.028334046124417624
aF0.24746134245386406
aF0.055023074032459464
aF0.04797837711280003
aF0.017005879787884735
aF0.0048531437676223475
aF0.0243596280158764
aF0.08849850771590136
aF0.029669176689712674
aF0.32584369398204527
aF0.09585964738870809
aF0.02986841384850394
aF0.016805453222510373
aF0.00458084265337153
aF0.027545569949621995
aF0.09004953027080678
aF0.04294716004075552
aF0.45603102282114
aF0.15163858425540463
aF0.05827922453111804
aF0.0291137328841387
aF0.007771956270131862
aF0.0419858437824465
aF0.14006896675050787
ag136
ag136
aF0.028334046124417624
aF0.24746134245386406
aF0.055023074032459464
aF0.047982045366315555
aF0.017001399280434978
aF0.004853144020841847
aF0.0243596280158764
aF0.08878550123670131
aF0.029669176689712674
aF0.32584369398204527
aF0.09585964738870809
aF0.029868915148329466
aF0.016804384659012454
aF0.004579609597445126
aF0.027545692923917814
aF0.09020136483374887
aF0.04294716004075552
aF0.4556437749170298
aF0.15163858425540463
aF0.05828232211657349
aF0.029115181133225712
aF0.007771458691211331
aF0.04198993116748579
aF0.13985642044731708
ag136
ag136
aF0.028334046124417624
aF0.24807110361091156
aF0.055023074032459464
aF0.04798800713529155
aF0.017031368230185473
aF0.004848947784932876
aF0.024375634658602662
aF0.08878550123670131
aF0.029669176689712674
aF0.32747113777582193
aF0.09585964738870809
aF0.02992078204518303
aF0.016826573602739883
aF0.004586871539148285
aF0.02756314461116464
aF0.09019745012564463
aF0.04294716004075552
aF0.45655463449983624
aF0.15163858425540463
aF0.05833519932628324
aF0.029144127264222577
aF0.007774733649651946
aF0.04200075992107941
aF0.1400643705600669
ag136
ag136
aF0.028334046124417624
aF0.24856357218680303
aF0.055023074032459464
aF0.04794717800564743
aF0.016978880831130073
aF0.004842777661440027
aF0.024346739023052094
aF0.0890776206338326
aF0.029669176689712674
aF0.3248154924457888
aF0.09585964738870809
aF0.029790849749502826
aF0.016789049383500027
aF0.004570048053608836
aF0.027500636490721042
aF0.08943828517013974
aF0.04294716004075552
aF0.4554335820519666
aF0.15163858425540463
aF0.05821431769591247
aF0.02907947859991819
aF0.00777038951475995
aF0.04193386835161127
aF0.13988519391708215
ag136
ag136
atp237
ba(lp238
g15
(g16
(dp239
g18
g19
(g20
(I0
tp240
g22
tp241
Rp242
(I1
(I38
tp243
g29
I00
(lp244
g33
ag34
ag35
ag36
ag37
ag38
ag39
ag40
ag41
ag42
ag43
ag44
ag45
ag46
ag47
ag48
ag49
ag50
ag51
ag52
ag53
ag54
ag55
ag56
ag57
ag58
ag59
ag60
ag61
ag62
ag63
ag64
ag65
ag66
ag67
ag68
ag69
ag70
atp245
bsg72
Nstp246
Rp247
a(dp248
S'0.14.1'
p249
(dp250
S'axes'
p251
g14
sS'blocks'
p252
(lp253
(dp254
S'mgr_locs'
p255
c__builtin__
slice
p256
(I0
I38
I1
tp257
Rp258
sS'values'
p259
g93
sasstp260
bsb.