ccopy_reg
_reconstructor
p0
(cpandas.core.frame
DataFrame
p1
c__builtin__
object
p2
Ntp3
Rp4
(dp5
S'_metadata'
p6
(lp7
sS'_typ'
p8
S'dataframe'
p9
sS'_data'
p10
g0
(cpandas.core.internals
BlockManager
p11
g2
Ntp12
Rp13
((lp14
cpandas.core.indexes.base
_new_Index
p15
(cpandas.core.indexes.base
Index
p16
(dp17
S'data'
p18
cnumpy.core.multiarray
_reconstruct
p19
(cnumpy
ndarray
p20
(I0
tp21
S'b'
p22
tp23
Rp24
(I1
(I38
tp25
cnumpy
dtype
p26
(S'O8'
p27
I0
I1
tp28
Rp29
(I3
S'|'
p30
NNNI-1
I-1
I63
tp31
bI00
(lp32
S'year'
p33
aS'type'
p34
aS'procOriginal'
p35
aS'proc'
p36
aS'proc_s0'
p37
aS'cat'
p38
aS'inputWSFile'
p39
aS'nominalDataName'
p40
aS'modelWSFile'
p41
aS'model'
p42
aS'rate'
p43
aS'nominal_yield'
p44
aS'sumw2'
p45
aS'nominal_yield_COWCorr'
p46
aS'weight_electron_veto_sf_Diphoton_Photon_up_yield'
p47
aS'weight_electron_veto_sf_Diphoton_Photon_down_yield'
p48
aS'weight_electron_id_sf_SelectedElectron_up_yield'
p49
aS'weight_electron_id_sf_SelectedElectron_down_yield'
p50
aS'weight_muon_id_sfSTAT_SelectedMuon_up_yield'
p51
aS'weight_muon_id_sfSTAT_SelectedMuon_down_yield'
p52
aS'weight_muon_id_sfSYS_SelectedMuon_up_yield'
p53
aS'weight_muon_id_sfSYS_SelectedMuon_down_yield'
p54
aS'weight_trigger_sf_up_yield'
p55
aS'weight_trigger_sf_down_yield'
p56
aS'JER_up_yield'
p57
aS'JER_down_yield'
p58
aS'JES_up_yield'
p59
aS'JES_down_yield'
p60
aS'MET_JER_up_yield'
p61
aS'MET_JER_down_yield'
p62
aS'MET_JES_up_yield'
p63
aS'MET_JES_down_yield'
p64
aS'MET_Unclustered_up_yield'
p65
aS'MET_Unclustered_down_yield'
p66
aS'Muon_pt_up_yield'
p67
aS'Muon_pt_down_yield'
p68
aS'Tau_pt_up_yield'
p69
aS'Tau_pt_down_yield'
p70
atp71
bsS'name'
p72
Nstp73
Rp74
ag15
(cpandas.core.indexes.numeric
Int64Index
p75
(dp76
g18
g19
(g20
(I0
tp77
g22
tp78
Rp79
(I1
(I26
tp80
g26
(S'i8'
p81
I0
I1
tp82
Rp83
(I3
S'<'
p84
NNNI-1
I-1
I0
tp85
bI00
S'\x00\x00\x00\x00\x00\x00\x00\x00\x01\x00\x00\x00\x00\x00\x00\x00\x02\x00\x00\x00\x00\x00\x00\x00\x03\x00\x00\x00\x00\x00\x00\x00\x04\x00\x00\x00\x00\x00\x00\x00\x05\x00\x00\x00\x00\x00\x00\x00\x06\x00\x00\x00\x00\x00\x00\x00\x07\x00\x00\x00\x00\x00\x00\x00\x08\x00\x00\x00\x00\x00\x00\x00\t\x00\x00\x00\x00\x00\x00\x00\n\x00\x00\x00\x00\x00\x00\x00\x0b\x00\x00\x00\x00\x00\x00\x00\x0c\x00\x00\x00\x00\x00\x00\x00\r\x00\x00\x00\x00\x00\x00\x00\x0e\x00\x00\x00\x00\x00\x00\x00\x0f\x00\x00\x00\x00\x00\x00\x00\x10\x00\x00\x00\x00\x00\x00\x00\x11\x00\x00\x00\x00\x00\x00\x00\x12\x00\x00\x00\x00\x00\x00\x00\x13\x00\x00\x00\x00\x00\x00\x00\x14\x00\x00\x00\x00\x00\x00\x00\x15\x00\x00\x00\x00\x00\x00\x00\x16\x00\x00\x00\x00\x00\x00\x00\x17\x00\x00\x00\x00\x00\x00\x00\x18\x00\x00\x00\x00\x00\x00\x00\x19\x00\x00\x00\x00\x00\x00\x00'
p86
tp87
bsg72
Nstp88
Rp89
a(lp90
g19
(g20
(I0
tp91
g22
tp92
Rp93
(I1
(I38
I26
tp94
g29
I00
(lp95
S'2016'
p96
ag96
ag96
ag96
ag96
ag96
ag96
ag96
aS'2017'
p97
ag97
ag97
ag97
ag97
ag97
ag97
ag97
aS'2018'
p98
ag98
ag98
ag98
ag98
ag98
ag98
ag98
aS'merged'
p99
ag99
aS'sig'
p100
ag100
ag100
ag100
ag100
ag100
ag100
ag100
ag100
ag100
ag100
ag100
ag100
ag100
ag100
ag100
ag100
ag100
ag100
ag100
ag100
ag100
ag100
ag100
aS'bkg'
p101
ag18
aS'VBFH'
p102
aS'VH'
p103
aS'ggH'
p104
aS'ggHHkl0kt1'
p105
aS'ggHHkl1kt1'
p106
aS'ggHHkl2p45kt1'
p107
aS'ggHHkl5kt1'
p108
aS'ttH'
p109
ag102
ag103
ag104
ag105
ag106
ag107
ag108
ag109
ag102
ag103
ag104
ag105
ag106
ag107
ag108
ag109
aS'bkg_mass'
p110
aS'data_obs'
p111
aS'VBFH_2016_hgg'
p112
aS'VH_2016_hgg'
p113
aS'ggH_2016_hgg'
p114
aS'ggHHkl0kt1_2016_hgg'
p115
aS'ggHHkl1kt1_2016_hgg'
p116
aS'ggHHkl2p45kt1_2016_hgg'
p117
aS'ggHHkl5kt1_2016_hgg'
p118
aS'ttH_2016_hgg'
p119
aS'VBFH_2017_hgg'
p120
aS'VH_2017_hgg'
p121
aS'ggH_2017_hgg'
p122
aS'ggHHkl0kt1_2017_hgg'
p123
aS'ggHHkl1kt1_2017_hgg'
p124
aS'ggHHkl2p45kt1_2017_hgg'
p125
aS'ggHHkl5kt1_2017_hgg'
p126
aS'ttH_2017_hgg'
p127
aS'VBFH_2018_hgg'
p128
aS'VH_2018_hgg'
p129
aS'ggH_2018_hgg'
p130
aS'ggHHkl0kt1_2018_hgg'
p131
aS'ggHHkl1kt1_2018_hgg'
p132
aS'ggHHkl2p45kt1_2018_hgg'
p133
aS'ggHHkl5kt1_2018_hgg'
p134
aS'ttH_2018_hgg'
p135
ag110
ag111
ag102
ag103
ag104
ag105
ag106
ag107
ag108
ag109
ag102
ag103
ag104
ag105
ag106
ag107
ag108
ag109
ag102
ag103
ag104
ag105
ag106
ag107
ag108
ag109
aS'-'
p136
ag136
aS'SR1'
p137
ag137
ag137
ag137
ag137
ag137
ag137
ag137
ag137
ag137
ag137
ag137
ag137
ag137
ag137
ag137
ag137
ag137
ag137
ag137
ag137
ag137
ag137
ag137
ag137
ag137
aS'/home/users/fsetti/HHggTauTau/coupling_scan/CMSSW_10_2_13/src/flashggFinalFit/files_systs/08Apr2022//ws_signal_2016/output_VBFH_M125_13TeV_pythia8_VBFH.root'
p138
aS'/home/users/fsetti/HHggTauTau/coupling_scan/CMSSW_10_2_13/src/flashggFinalFit/files_systs/08Apr2022//ws_signal_2016/output_VH_M125_13TeV_pythia8_VH.root'
p139
aS'/home/users/fsetti/HHggTauTau/coupling_scan/CMSSW_10_2_13/src/flashggFinalFit/files_systs/08Apr2022//ws_signal_2016/output_ggH_M125_13TeV_pythia8_ggH.root'
p140
aS'/home/users/fsetti/HHggTauTau/coupling_scan/CMSSW_10_2_13/src/flashggFinalFit/files_systs/08Apr2022//ws_signal_2016/output_ggHHkl0kt1_M125_13TeV_pythia8_ggHHkl0kt1.root'
p141
aS'/home/users/fsetti/HHggTauTau/coupling_scan/CMSSW_10_2_13/src/flashggFinalFit/files_systs/08Apr2022//ws_signal_2016/output_ggHHkl1kt1_M125_13TeV_pythia8_ggHHkl1kt1.root'
p142
aS'/home/users/fsetti/HHggTauTau/coupling_scan/CMSSW_10_2_13/src/flashggFinalFit/files_systs/08Apr2022//ws_signal_2016/output_ggHHkl2p45kt1_M125_13TeV_pythia8_ggHHkl2p45kt1.root'
p143
aS'/home/users/fsetti/HHggTauTau/coupling_scan/CMSSW_10_2_13/src/flashggFinalFit/files_systs/08Apr2022//ws_signal_2016/output_ggHHkl5kt1_M125_13TeV_pythia8_ggHHkl5kt1.root'
p144
aS'/home/users/fsetti/HHggTauTau/coupling_scan/CMSSW_10_2_13/src/flashggFinalFit/files_systs/08Apr2022//ws_signal_2016/output_ttH_M125_13TeV_pythia8_ttH.root'
p145
aS'/home/users/fsetti/HHggTauTau/coupling_scan/CMSSW_10_2_13/src/flashggFinalFit/files_systs/08Apr2022//ws_signal_2017/output_VBFH_M125_13TeV_pythia8_VBFH.root'
p146
aS'/home/users/fsetti/HHggTauTau/coupling_scan/CMSSW_10_2_13/src/flashggFinalFit/files_systs/08Apr2022//ws_signal_2017/output_VH_M125_13TeV_pythia8_VH.root'
p147
aS'/home/users/fsetti/HHggTauTau/coupling_scan/CMSSW_10_2_13/src/flashggFinalFit/files_systs/08Apr2022//ws_signal_2017/output_ggH_M125_13TeV_pythia8_ggH.root'
p148
aS'/home/users/fsetti/HHggTauTau/coupling_scan/CMSSW_10_2_13/src/flashggFinalFit/files_systs/08Apr2022//ws_signal_2017/output_ggHHkl0kt1_M125_13TeV_pythia8_ggHHkl0kt1.root'
p149
aS'/home/users/fsetti/HHggTauTau/coupling_scan/CMSSW_10_2_13/src/flashggFinalFit/files_systs/08Apr2022//ws_signal_2017/output_ggHHkl1kt1_M125_13TeV_pythia8_ggHHkl1kt1.root'
p150
aS'/home/users/fsetti/HHggTauTau/coupling_scan/CMSSW_10_2_13/src/flashggFinalFit/files_systs/08Apr2022//ws_signal_2017/output_ggHHkl2p45kt1_M125_13TeV_pythia8_ggHHkl2p45kt1.root'
p151
aS'/home/users/fsetti/HHggTauTau/coupling_scan/CMSSW_10_2_13/src/flashggFinalFit/files_systs/08Apr2022//ws_signal_2017/output_ggHHkl5kt1_M125_13TeV_pythia8_ggHHkl5kt1.root'
p152
aS'/home/users/fsetti/HHggTauTau/coupling_scan/CMSSW_10_2_13/src/flashggFinalFit/files_systs/08Apr2022//ws_signal_2017/output_ttH_M125_13TeV_pythia8_ttH.root'
p153
aS'/home/users/fsetti/HHggTauTau/coupling_scan/CMSSW_10_2_13/src/flashggFinalFit/files_systs/08Apr2022//ws_signal_2018/output_VBFH_M125_13TeV_pythia8_VBFH.root'
p154
aS'/home/users/fsetti/HHggTauTau/coupling_scan/CMSSW_10_2_13/src/flashggFinalFit/files_systs/08Apr2022//ws_signal_2018/output_VH_M125_13TeV_pythia8_VH.root'
p155
aS'/home/users/fsetti/HHggTauTau/coupling_scan/CMSSW_10_2_13/src/flashggFinalFit/files_systs/08Apr2022//ws_signal_2018/output_ggH_M125_13TeV_pythia8_ggH.root'
p156
aS'/home/users/fsetti/HHggTauTau/coupling_scan/CMSSW_10_2_13/src/flashggFinalFit/files_systs/08Apr2022//ws_signal_2018/output_ggHHkl0kt1_M125_13TeV_pythia8_ggHHkl0kt1.root'
p157
aS'/home/users/fsetti/HHggTauTau/coupling_scan/CMSSW_10_2_13/src/flashggFinalFit/files_systs/08Apr2022//ws_signal_2018/output_ggHHkl1kt1_M125_13TeV_pythia8_ggHHkl1kt1.root'
p158
aS'/home/users/fsetti/HHggTauTau/coupling_scan/CMSSW_10_2_13/src/flashggFinalFit/files_systs/08Apr2022//ws_signal_2018/output_ggHHkl2p45kt1_M125_13TeV_pythia8_ggHHkl2p45kt1.root'
p159
aS'/home/users/fsetti/HHggTauTau/coupling_scan/CMSSW_10_2_13/src/flashggFinalFit/files_systs/08Apr2022//ws_signal_2018/output_ggHHkl5kt1_M125_13TeV_pythia8_ggHHkl5kt1.root'
p160
aS'/home/users/fsetti/HHggTauTau/coupling_scan/CMSSW_10_2_13/src/flashggFinalFit/files_systs/08Apr2022//ws_signal_2018/output_ttH_M125_13TeV_pythia8_ttH.root'
p161
ag136
ag136
aS'VBFH_125_13TeV_SR1'
p162
aS'VH_125_13TeV_SR1'
p163
aS'ggH_125_13TeV_SR1'
p164
aS'ggHHkl0kt1_125_13TeV_SR1'
p165
aS'ggHHkl1kt1_125_13TeV_SR1'
p166
aS'ggHHkl2p45kt1_125_13TeV_SR1'
p167
aS'ggHHkl5kt1_125_13TeV_SR1'
p168
aS'ttH_125_13TeV_SR1'
p169
aS'VBFH_125_13TeV_SR1'
p170
aS'VH_125_13TeV_SR1'
p171
aS'ggH_125_13TeV_SR1'
p172
aS'ggHHkl0kt1_125_13TeV_SR1'
p173
aS'ggHHkl1kt1_125_13TeV_SR1'
p174
aS'ggHHkl2p45kt1_125_13TeV_SR1'
p175
aS'ggHHkl5kt1_125_13TeV_SR1'
p176
aS'ttH_125_13TeV_SR1'
p177
aS'VBFH_125_13TeV_SR1'
p178
aS'VH_125_13TeV_SR1'
p179
aS'ggH_125_13TeV_SR1'
p180
aS'ggHHkl0kt1_125_13TeV_SR1'
p181
aS'ggHHkl1kt1_125_13TeV_SR1'
p182
aS'ggHHkl2p45kt1_125_13TeV_SR1'
p183
aS'ggHHkl5kt1_125_13TeV_SR1'
p184
aS'ttH_125_13TeV_SR1'
p185
ag136
ag136
aS'./Models/signal/CMS-HGG_sigfit_packaged_SR1.root'
p186
aS'./Models/signal/CMS-HGG_sigfit_packaged_SR1.root'
p187
aS'./Models/signal/CMS-HGG_sigfit_packaged_SR1.root'
p188
aS'./Models/signal/CMS-HGG_sigfit_packaged_SR1.root'
p189
aS'./Models/signal/CMS-HGG_sigfit_packaged_SR1.root'
p190
aS'./Models/signal/CMS-HGG_sigfit_packaged_SR1.root'
p191
aS'./Models/signal/CMS-HGG_sigfit_packaged_SR1.root'
p192
aS'./Models/signal/CMS-HGG_sigfit_packaged_SR1.root'
p193
aS'./Models/signal/CMS-HGG_sigfit_packaged_SR1.root'
p194
aS'./Models/signal/CMS-HGG_sigfit_packaged_SR1.root'
p195
aS'./Models/signal/CMS-HGG_sigfit_packaged_SR1.root'
p196
aS'./Models/signal/CMS-HGG_sigfit_packaged_SR1.root'
p197
aS'./Models/signal/CMS-HGG_sigfit_packaged_SR1.root'
p198
aS'./Models/signal/CMS-HGG_sigfit_packaged_SR1.root'
p199
aS'./Models/signal/CMS-HGG_sigfit_packaged_SR1.root'
p200
aS'./Models/signal/CMS-HGG_sigfit_packaged_SR1.root'
p201
aS'./Models/signal/CMS-HGG_sigfit_packaged_SR1.root'
p202
aS'./Models/signal/CMS-HGG_sigfit_packaged_SR1.root'
p203
aS'./Models/signal/CMS-HGG_sigfit_packaged_SR1.root'
p204
aS'./Models/signal/CMS-HGG_sigfit_packaged_SR1.root'
p205
aS'./Models/signal/CMS-HGG_sigfit_packaged_SR1.root'
p206
aS'./Models/signal/CMS-HGG_sigfit_packaged_SR1.root'
p207
aS'./Models/signal/CMS-HGG_sigfit_packaged_SR1.root'
p208
aS'./Models/signal/CMS-HGG_sigfit_packaged_SR1.root'
p209
aS'./Models/background/CMS-HGG_multipdf_SR1.root'
p210
ag210
aS'wsig_13TeV:hggpdfsmrel_VBFH_2016_SR1_13TeV'
p211
aS'wsig_13TeV:hggpdfsmrel_VH_2016_SR1_13TeV'
p212
aS'wsig_13TeV:hggpdfsmrel_ggH_2016_SR1_13TeV'
p213
aS'wsig_13TeV:hggpdfsmrel_ggHHkl0kt1_2016_SR1_13TeV'
p214
aS'wsig_13TeV:hggpdfsmrel_ggHHkl1kt1_2016_SR1_13TeV'
p215
aS'wsig_13TeV:hggpdfsmrel_ggHHkl2p45kt1_2016_SR1_13TeV'
p216
aS'wsig_13TeV:hggpdfsmrel_ggHHkl5kt1_2016_SR1_13TeV'
p217
aS'wsig_13TeV:hggpdfsmrel_ttH_2016_SR1_13TeV'
p218
aS'wsig_13TeV:hggpdfsmrel_VBFH_2017_SR1_13TeV'
p219
aS'wsig_13TeV:hggpdfsmrel_VH_2017_SR1_13TeV'
p220
aS'wsig_13TeV:hggpdfsmrel_ggH_2017_SR1_13TeV'
p221
aS'wsig_13TeV:hggpdfsmrel_ggHHkl0kt1_2017_SR1_13TeV'
p222
aS'wsig_13TeV:hggpdfsmrel_ggHHkl1kt1_2017_SR1_13TeV'
p223
aS'wsig_13TeV:hggpdfsmrel_ggHHkl2p45kt1_2017_SR1_13TeV'
p224
aS'wsig_13TeV:hggpdfsmrel_ggHHkl5kt1_2017_SR1_13TeV'
p225
aS'wsig_13TeV:hggpdfsmrel_ttH_2017_SR1_13TeV'
p226
aS'wsig_13TeV:hggpdfsmrel_VBFH_2018_SR1_13TeV'
p227
aS'wsig_13TeV:hggpdfsmrel_VH_2018_SR1_13TeV'
p228
aS'wsig_13TeV:hggpdfsmrel_ggH_2018_SR1_13TeV'
p229
aS'wsig_13TeV:hggpdfsmrel_ggHHkl0kt1_2018_SR1_13TeV'
p230
aS'wsig_13TeV:hggpdfsmrel_ggHHkl1kt1_2018_SR1_13TeV'
p231
aS'wsig_13TeV:hggpdfsmrel_ggHHkl2p45kt1_2018_SR1_13TeV'
p232
aS'wsig_13TeV:hggpdfsmrel_ggHHkl5kt1_2018_SR1_13TeV'
p233
aS'wsig_13TeV:hggpdfsmrel_ttH_2018_SR1_13TeV'
p234
aS'multipdf:CMS_hgg_SR1_13TeV_bkgshape'
p235
aS'multipdf:roohist_data_mass_SR1'
p236
aI1000
aI1000
aI1000
aI1000
aI1000
aI1000
aI1000
aI1000
aI1000
aI1000
aI1000
aI1000
aI1000
aI1000
aI1000
aI1000
aI1000
aI1000
aI1000
aI1000
aI1000
aI1000
aI1000
aI1000
aF1.0
aI-1
aF0.008673619058150188
aF0.25692169275359356
aF0.020775708380597984
aF0.226241252265131
aF0.12899699113191257
aF0.049029723353512675
aF0.0907888102435241
aF0.05807235691003623
aF0.010083174182210716
aF0.32427153855039026
aF0.000975449050788074
aF0.3897560316319392
aF0.15346053904778117
aF0.056832028188822284
aF0.10774726485738258
aF0.05457586703646481
aF0.010119524326577188
aF0.4546704593784177
aF0.006552064268465043
aF0.37719635118571937
aF0.20963553822516667
aF0.31875404280668357
aF0.15476431658284495
aF0.09527308406460824
ag136
ag136
aF5.306334329129123e-06
aF0.00014903782085226553
aF4.5044012958528765e-05
aF4.4732051610615433e-07
aF1.2641287021044585e-07
aF5.896579938174134e-07
aF2.2344283646750804e-07
aF2.351814608058144e-05
aF1.205689518797327e-05
aF0.00019529497598485258
aF2.3177234976108e-05
aF0.022058344447865405
aF1.6564607262624076e-07
aF3.8948767135069874e-07
aF2.893957040457182e-07
aF2.6904992657734286e-05
aF1.7946125914457443e-05
aF0.0004094649977407913
aF0.0002220801742808912
aF1.165894364205996e-06
aF3.7858426043879445e-07
aF0.02952881958340384
aF5.878834138297423e-07
aF5.7124926083869405e-05
ag136
ag136
aF0.008673619058150188
aF0.25692169275359356
aF0.020775708380597984
aF0.226241252265131
aF0.12899699113191257
aF0.049029723353512675
aF0.0907888102435241
aF0.05807235691003623
aF0.010083174182210716
aF0.32427153855039026
aF0.000975449050788074
aF0.3897560316319392
aF0.15346053904778117
aF0.056832028188822284
aF0.10774726485738258
aF0.05457586703646481
aF0.010119524326577188
aF0.4546704593784177
aF0.006552064268465043
aF0.37719635118571937
aF0.20963553822516667
aF0.31875404280668357
aF0.15476431658284495
aF0.09527308406460824
ag136
ag136
aF0.008631194708564131
aF0.25509848508166105
aF0.020604482970481175
aF0.22467302079564386
aF0.12810241255639804
aF0.04868940341626336
aF0.09016733999871074
aF0.05767923960398215
aF0.009903594847609217
aF0.3181820141642991
aF0.0009544843466541305
aF0.38296926815856763
aF0.15062072985765246
aF0.05578631300872648
aF0.10576224492128217
aF0.05360416591475356
aF0.009960715559731041
aF0.4467389909953215
aF0.006518154499911138
aF0.37072019800582545
aF0.20604518995533821
aF0.31118645736320694
aF0.15210570570942622
aF0.09367476903275189
ag136
ag136
aF0.008612757537013689
aF0.25413611253938
aF0.02053059350001194
aF0.22383464715795726
aF0.127627798761098
aF0.048515649624156325
aF0.08983020355332554
aF0.05747045273844037
aF0.009870470252807158
aF0.3164447007826868
aF0.0009481156074321834
aF0.3811864254958853
aF0.14982965863523673
aF0.055499443167323165
aF0.10521325652949576
aF0.053323927913491706
aF0.009934980224920101
aF0.44530399030285917
aF0.006520443677209142
aF0.3695331168554037
aF0.2053892181505384
aF0.3098579310810779
aF0.15161694454046412
aF0.09339467436950837
ag136
ag136
aF0.00866203468721313
aF0.2566519722876953
aF0.020775708380597984
aF0.22539516369887372
aF0.12853307091693136
aF0.04886436752173374
aF0.09041557751160512
aF0.057811591762521805
aF0.010093144358274199
aF0.32343720866163694
aF0.0009728251161164898
aF0.3882670258080008
aF0.15255232770796334
aF0.056506344599024726
aF0.10708700182020627
aF0.05415724681395175
aF0.010119524326577188
aF0.45364252656315535
aF0.006552064268465043
aF0.37462405603634025
aF0.2082956995197819
aF0.31824438393139515
aF0.15360902306876692
aF0.09439823068906973
ag136
ag136
aF0.008687469325189908
aF0.25578432507658494
aF0.020775708380597984
aF0.22365166770553718
aF0.1275919201852078
aF0.04853620430279347
aF0.0896433527018238
aF0.057123477228491426
aF0.010123768420445583
aF0.3226511891193853
aF0.0010999638205639022
aF0.3866116169673151
aF0.15155686362485213
aF0.05614744732762937
aF0.10634494467115722
aF0.053637905333534845
aF0.010119524326577188
aF0.4524577747672737
aF0.006552064268465043
aF0.37176433360713074
aF0.206796666683123
aF0.3176445430614537
aF0.1523143252599081
aF0.0936399064610691
ag136
ag136
aF0.008673506476719708
aF0.2567832102375131
aF0.020762139750860397
aF0.22605509441873714
aF0.1288957989646072
aF0.048993225306347116
aF0.09069886896756171
aF0.05799759410046767
aF0.010083052726215536
aF0.32445903994465347
aF0.000975449050788074
aF0.3900253660731135
aF0.1536269898491846
aF0.05689236275952441
aF0.10787751916156962
aF0.054701729732330305
aF0.010121502885798415
aF0.4544952635318914
aF0.006567031900063006
aF0.37653834213023546
aF0.20929731991865444
aF0.31862017384391833
aF0.15445758532866977
aF0.0951179172202312
ag136
ag136
aF0.008673758519547551
aF0.25670551818083354
aF0.020754679994076305
aF0.2258457307862445
aF0.12878160748734355
aF0.048952844259040715
aF0.09060334884827964
aF0.057954350127006934
aF0.01008332463706578
aF0.3243506337015393
aF0.000975449050788074
aF0.38980847218086084
aF0.1534972754038317
aF0.05684583001913494
aF0.10777481774671302
aF0.054635451096978205
aF0.010119563834929053
aF0.4544173051042203
aF0.006552363145774053
aF0.3762859582789899
aF0.20916574313244216
aF0.3185743983615575
aF0.1543409365385708
aF0.0950333521871726
ag136
ag136
aF0.008673547045913662
aF0.25695418325099395
aF0.020777471766605177
aF0.22642225862107715
aF0.12909511167129223
aF0.0490626018207887
aF0.0908713211115413
aF0.05807989466130586
aF0.01008309649339636
aF0.3246349131024642
aF0.000975449050788074
aF0.39039078003448274
aF0.15384342154334885
aF0.05697051590498144
aF0.1080567066408382
aF0.05481181258245939
aF0.010124606243037196
aF0.45467271063823184
aF0.006590508532639176
aF0.3771999361172469
aF0.2096404974712163
aF0.3187290461111001
aF0.15476738145155297
aF0.09532500167246372
ag136
ag136
aF0.008673717950353597
aF0.2565345520275804
aF0.020739356196508657
aF0.22547878058429724
aF0.12858242152286184
aF0.04888351121555707
aF0.09043099713232429
aF0.05787215337852372
aF0.010083280869884954
aF0.3241748652173428
aF0.000975449050788074
aF0.38944327039589943
aF0.15328096729876678
aF0.05676771820767662
aF0.10759571992725657
aF0.05452547965636691
aF0.010116460525290699
aF0.4542397981807197
aF0.006528886873291029
aF0.3756247081678512
aF0.2088227477865697
aF0.3184656130320204
aF0.1540313057071815
aF0.09482661310431996
ag136
ag136
aF0.008617312835168776
aF0.25457065543173724
aF0.020659978993073605
aF0.22421555912439636
aF0.12785587884744778
aF0.04862116366494491
aF0.0899526352179565
aF0.057691711650614444
aF0.009964380435508156
aF0.32035319840855364
aF0.0009631888548859804
aF0.3854952769398277
aF0.15155879007650017
aF0.05615413611702541
aF0.10635339487168873
aF0.05394381292266871
aF0.010026740829103997
aF0.45034703003621757
aF0.00650888090646868
aF0.37335081285846705
aF0.2075316096026901
aF0.317197759480356
aF0.153115991964409
aF0.09441680480471586
ag136
ag136
aF0.008583658274671876
aF0.25344960353389717
aF0.02057719057505468
aF0.22326588446599216
aF0.1273169097489626
aF0.04841701245416519
aF0.08957069075384579
aF0.05746561951155536
aF0.00991685904334666
aF0.3186872060255195
aF0.0009589676717823644
aF0.3836864945029988
aF0.1508065776789977
aF0.05587652626542148
aF0.10582937174856566
aF0.053677792582435324
aF0.009983509157880733
aF0.4483322181021743
aF0.006484047718915751
aF0.37170138301693206
aF0.20661744382743358
aF0.31544834348730716
aF0.15243461406867276
aF0.09401202111865813
ag136
ag136
aF0.008673619058150188
aF0.2569216927535934
aF0.02077570838059798
aF0.2262697181662341
aF0.12898897697800155
aF0.0490295162722541
aF0.09077839585907083
aF0.05780456387438304
aF0.010083174182210716
aF0.32463818568417724
aF0.000975449050788074
aF0.3897986849482625
aF0.15348717926977218
aF0.05685045255612235
aF0.10776467591614024
aF0.05440852175195544
aF0.010754793110848307
aF0.4541744817930778
aF0.006552064268465042
aF0.3771344067019807
aF0.20960107376653364
aF0.3187496572860534
aF0.154738004868088
aF0.0947714167122013
ag136
ag136
aF0.008673619058150188
aF0.25622884067039847
aF0.02077570838059798
aF0.22628171954844545
aF0.1290166973764078
aF0.049030814628847896
aF0.09078674115888333
aF0.05781553233584421
aF0.010083174182210716
aF0.3238605079936095
aF0.000975449050788074
aF0.38968185077435796
aF0.15344776833776674
aF0.05682643204435414
aF0.10770813136500847
aF0.05442068342888973
aF0.010119524326577188
aF0.45516787483738447
aF0.006552064268465042
aF0.37720407135663747
aF0.20964912494813578
aF0.31875859112905347
aF0.15475821207898585
aF0.09552377601499172
ag136
ag136
aF0.008673619058150188
aF0.25628059824327304
aF0.02077570838059798
aF0.2259996793994693
aF0.12886612661685123
aF0.048986590997064816
aF0.09056784038766824
aF0.05777774447616086
aF0.010083174182210716
aF0.32427153855039065
aF0.000975449050788074
aF0.38956922834581925
aF0.15333213916567281
aF0.056784447853098496
aF0.10759896842326301
aF0.05440352159045718
aF0.010119524326577188
aF0.454115948913744
aF0.006552064268465042
aF0.37665296121965175
aF0.20927826654369983
aF0.3186710723033474
aF0.15442618524612015
aF0.09402311039801704
ag136
ag136
aF0.008673619058150188
aF0.25697428596436656
aF0.02077570838059798
aF0.22654694481158946
aF0.12914715631352588
aF0.04907358578097713
aF0.09090538443973732
aF0.05821626751336069
aF0.010083174182210716
aF0.3238959570051037
aF0.000975449050788074
aF0.3899805661301209
aF0.15361216489944546
aF0.05688036195653431
aF0.10786686308846523
aF0.054093770831461475
aF0.010754793110848307
aF0.45513338088366095
aF0.006552064268465042
aF0.3777809818198586
aF0.21000218060728748
aF0.3188378234229193
aF0.1549861883621747
aF0.0946334719478376
ag136
ag136
aF0.009387885775821078
aF0.2568130456229796
aF0.02077570838059798
aF0.22624646307804486
aF0.12892523278624451
aF0.04905379651420852
aF0.09082721079349707
aF0.058925909395986686
aF0.010891122146835484
aF0.32424910489049086
aF0.000975449050788074
aF0.3898544702726424
aF0.15348469088458896
aF0.05677614505566882
aF0.10793166232152195
aF0.05428544931116509
aF0.009071824481312243
aF0.4602867587143176
aF0.006552064268465042
aF0.3773204245064259
aF0.2096745941729981
aF0.3187557852601057
aF0.15478054310778894
aF0.09531494534261396
ag136
ag136
aF0.010098276494173603
aF0.2561359647448679
aF0.02077570838059798
aF0.22631687306668466
aF0.12898630099839584
aF0.04903435396941248
aF0.09089089577443343
aF0.05978243936001293
aF0.01125099100194742
aF0.3239809869434512
aF0.0006129912070834062
aF0.38962825864624256
aF0.15331133568818175
aF0.05680049388550016
aF0.10760103108593434
aF0.054951626765563186
aF0.010080881333556299
aF0.4567132808336323
aF0.0007429156482104795
aF0.3770522792712885
aF0.20965913576101733
aF0.3192465001646325
aF0.15451757571701544
aF0.09641417948811097
ag136
ag136
aF0.00877881177058402
aF0.2580231690137116
aF0.02077570838059798
aF0.2257657989618573
aF0.12862938179840602
aF0.04896365234218578
aF0.09072358099430876
aF0.05837936873313915
aF0.009758272614152066
aF0.3202869490173411
aF0.000975449050788074
aF0.6580657166302261
aF0.15311706794039204
aF0.05680892323749287
aF0.10756197547333592
aF0.05448250153428094
aF0.010672017100534148
aF0.45259567546855983
aF0.006552064268465042
aF0.3763244769916158
aF0.20920264246273543
aF0.3186184083338389
aF0.15439587412947614
aF0.0959227706770436
ag136
ag136
aF0.009131921179554183
aF0.2594905989628281
aF0.02445485229022066
aF0.22694517490732175
aF0.12935535841862938
aF0.049113306462586145
aF0.09108522965076012
aF0.05904600845636939
aF0.010705742796060987
aF0.3249970808392564
aF0.0050543885492482475
aF0.3900858704339802
aF0.15373485201373033
aF0.056932443112665584
aF0.10803060322916043
aF0.05436811722614617
aF0.010080881333556299
aF0.46220755279911807
aF0.006552064268465042
aF0.37824153117926657
aF0.2102756279016619
aF0.3190051541566034
aF0.15506357717314442
aF0.0939463103502114
ag136
ag136
aF0.007364107766043306
aF0.25365020438814556
aF0.02807951670436883
aF0.2268302209270131
aF0.12932418836752155
aF0.049113703700182566
aF0.09124800572111508
aF0.05929574561770074
aF0.00871234548648771
aF0.32334330904730946
aF0.007956381647860276
aF0.6595952263461637
aF0.15370910100885338
aF0.05678352056096454
aF0.10820827725666686
aF0.052584958236678116
aF0.009260859337523249
aF0.4605684317508866
aF0.0007429156482104795
aF0.37839378828942477
aF0.210168295675158
aF0.31934287226167235
aF0.15537856662941515
aF0.09556422281221148
ag136
ag136
aF0.009348629939696127
aF0.2558743635619092
aF0.02065125127363182
aF0.22589507405146286
aF0.12871284427250734
aF0.04878910246612103
aF0.09050619106754768
aF0.058128397078078035
aF0.010402927474563931
aF0.32217126830829435
aF0.000975449050788074
aF0.389151840025198
aF0.15322010811726602
aF0.056984374472175296
aF0.10741711465582421
aF0.05439499452325055
aF0.01092836828831958
aF0.45332305682010937
aF0.006552064268465042
aF0.3761456521771592
aF0.20942377487706396
aF0.318738819810586
aF0.1541668747888077
aF0.09221992421082985
ag136
ag136
aF0.008673619058150188
aF0.25743166930845157
aF0.02077570838059798
aF0.2262502318017763
aF0.12899448556183787
aF0.049030686766378104
aF0.0907907689261846
aF0.058072356910036205
aF0.010083174182210716
aF0.32427153855039065
aF0.000975449050788074
aF0.3897645301180125
aF0.15346413630929678
aF0.05683369978591018
aF0.10774158529019162
aF0.05457586703646485
aF0.010119524326577188
aF0.4541533090052534
aF0.006552064268465042
aF0.3772155678249576
aF0.2096364155521235
aF0.31875321536034557
aF0.15476459256697542
aF0.09527308406460813
ag136
ag136
aF0.008673619058150188
aF0.2569216927535934
aF0.02077570838059798
aF0.22623564698262077
aF0.12899981498911306
aF0.04902917435793476
aF0.09078647500863385
aF0.058072356910036205
aF0.010083174182210716
aF0.32427153855039065
aF0.000975449050788074
aF0.389758331388073
aF0.1534593300606437
aF0.05683185441982965
aF0.10774726485738312
aF0.05474265984606052
aF0.010119524326577188
aF0.45417089102430996
aF0.006552064268465042
aF0.3771987254260412
aF0.20963414560163554
aF0.31875550919343193
aF0.154758617655691
aF0.09549385881538622
ag136
ag136
aF0.008673619058150188
aF0.2563119315965459
aF0.02077570838059798
aF0.22643161667576814
aF0.12908124271260368
aF0.049056900963425285
aF0.09088211874023866
aF0.05780028079282487
aF0.010083174182210716
aF0.3240851655039396
aF0.000975449050788074
aF0.6591575549462322
aF0.15357532928659645
aF0.05686143553522146
aF0.1079079904069486
aF0.05474923388577453
aF0.010119524326577188
aF0.45573387678412697
aF0.006552064268465042
aF0.3773366694924079
aF0.20970794059579112
aF0.31881433731801084
aF0.15488430568802414
aF0.09527308406460813
ag136
ag136
aF0.008673619058150188
aF0.25497754964922
aF0.02077570838059798
aF0.22597986383157215
aF0.128854872663567
aF0.04901532062606542
aF0.09062714930349165
aF0.05777832734080717
aF0.010083174182210716
aF0.32466610607116725
aF0.000975449050788074
aF0.38941346107921804
aF0.1532740378349271
aF0.056775562692408216
aF0.10752989908203997
aF0.05468174655075808
aF0.010119524326577188
aF0.4546908425778699
aF0.006552064268465042
aF0.3769224102948057
aF0.2095036129657008
aF0.31873453340717994
aF0.15465005774873775
aF0.09524401266110746
ag136
ag136
atp237
ba(lp238
g15
(g16
(dp239
g18
g19
(g20
(I0
tp240
g22
tp241
Rp242
(I1
(I38
tp243
g29
I00
(lp244
g33
ag34
ag35
ag36
ag37
ag38
ag39
ag40
ag41
ag42
ag43
ag44
ag45
ag46
ag47
ag48
ag49
ag50
ag51
ag52
ag53
ag54
ag55
ag56
ag57
ag58
ag59
ag60
ag61
ag62
ag63
ag64
ag65
ag66
ag67
ag68
ag69
ag70
atp245
bsg72
Nstp246
Rp247
a(dp248
S'0.14.1'
p249
(dp250
S'axes'
p251
g14
sS'blocks'
p252
(lp253
(dp254
S'mgr_locs'
p255
c__builtin__
slice
p256
(I0
I38
I1
tp257
Rp258
sS'values'
p259
g93
sasstp260
bsb.