ccopy_reg
_reconstructor
p0
(cpandas.core.frame
DataFrame
p1
c__builtin__
object
p2
Ntp3
Rp4
(dp5
S'_metadata'
p6
(lp7
sS'_typ'
p8
S'dataframe'
p9
sS'_data'
p10
g0
(cpandas.core.internals
BlockManager
p11
g2
Ntp12
Rp13
((lp14
cpandas.core.indexes.base
_new_Index
p15
(cpandas.core.indexes.base
Index
p16
(dp17
S'data'
p18
cnumpy.core.multiarray
_reconstruct
p19
(cnumpy
ndarray
p20
(I0
tp21
S'b'
p22
tp23
Rp24
(I1
(I38
tp25
cnumpy
dtype
p26
(S'O8'
p27
I0
I1
tp28
Rp29
(I3
S'|'
p30
NNNI-1
I-1
I63
tp31
bI00
(lp32
S'year'
p33
aS'type'
p34
aS'procOriginal'
p35
aS'proc'
p36
aS'proc_s0'
p37
aS'cat'
p38
aS'inputWSFile'
p39
aS'nominalDataName'
p40
aS'modelWSFile'
p41
aS'model'
p42
aS'rate'
p43
aS'nominal_yield'
p44
aS'sumw2'
p45
aS'nominal_yield_COWCorr'
p46
aS'weight_electron_veto_sf_Diphoton_Photon_up_yield'
p47
aS'weight_electron_veto_sf_Diphoton_Photon_down_yield'
p48
aS'weight_electron_id_sf_SelectedElectron_up_yield'
p49
aS'weight_electron_id_sf_SelectedElectron_down_yield'
p50
aS'weight_muon_id_sfSTAT_SelectedMuon_up_yield'
p51
aS'weight_muon_id_sfSTAT_SelectedMuon_down_yield'
p52
aS'weight_muon_id_sfSYS_SelectedMuon_up_yield'
p53
aS'weight_muon_id_sfSYS_SelectedMuon_down_yield'
p54
aS'weight_trigger_sf_up_yield'
p55
aS'weight_trigger_sf_down_yield'
p56
aS'JER_up_yield'
p57
aS'JER_down_yield'
p58
aS'JES_up_yield'
p59
aS'JES_down_yield'
p60
aS'MET_JER_up_yield'
p61
aS'MET_JER_down_yield'
p62
aS'MET_JES_up_yield'
p63
aS'MET_JES_down_yield'
p64
aS'MET_Unclustered_up_yield'
p65
aS'MET_Unclustered_down_yield'
p66
aS'Muon_pt_up_yield'
p67
aS'Muon_pt_down_yield'
p68
aS'Tau_pt_up_yield'
p69
aS'Tau_pt_down_yield'
p70
atp71
bsS'name'
p72
Nstp73
Rp74
ag15
(cpandas.core.indexes.numeric
Int64Index
p75
(dp76
g18
g19
(g20
(I0
tp77
g22
tp78
Rp79
(I1
(I26
tp80
g26
(S'i8'
p81
I0
I1
tp82
Rp83
(I3
S'<'
p84
NNNI-1
I-1
I0
tp85
bI00
S'\x00\x00\x00\x00\x00\x00\x00\x00\x01\x00\x00\x00\x00\x00\x00\x00\x02\x00\x00\x00\x00\x00\x00\x00\x03\x00\x00\x00\x00\x00\x00\x00\x04\x00\x00\x00\x00\x00\x00\x00\x05\x00\x00\x00\x00\x00\x00\x00\x06\x00\x00\x00\x00\x00\x00\x00\x07\x00\x00\x00\x00\x00\x00\x00\x08\x00\x00\x00\x00\x00\x00\x00\t\x00\x00\x00\x00\x00\x00\x00\n\x00\x00\x00\x00\x00\x00\x00\x0b\x00\x00\x00\x00\x00\x00\x00\x0c\x00\x00\x00\x00\x00\x00\x00\r\x00\x00\x00\x00\x00\x00\x00\x0e\x00\x00\x00\x00\x00\x00\x00\x0f\x00\x00\x00\x00\x00\x00\x00\x10\x00\x00\x00\x00\x00\x00\x00\x11\x00\x00\x00\x00\x00\x00\x00\x12\x00\x00\x00\x00\x00\x00\x00\x13\x00\x00\x00\x00\x00\x00\x00\x14\x00\x00\x00\x00\x00\x00\x00\x15\x00\x00\x00\x00\x00\x00\x00\x16\x00\x00\x00\x00\x00\x00\x00\x17\x00\x00\x00\x00\x00\x00\x00\x18\x00\x00\x00\x00\x00\x00\x00\x19\x00\x00\x00\x00\x00\x00\x00'
p86
tp87
bsg72
Nstp88
Rp89
a(lp90
g19
(g20
(I0
tp91
g22
tp92
Rp93
(I1
(I38
I26
tp94
g29
I00
(lp95
S'2016'
p96
ag96
ag96
ag96
ag96
ag96
ag96
ag96
aS'2017'
p97
ag97
ag97
ag97
ag97
ag97
ag97
ag97
aS'2018'
p98
ag98
ag98
ag98
ag98
ag98
ag98
ag98
aS'merged'
p99
ag99
aS'sig'
p100
ag100
ag100
ag100
ag100
ag100
ag100
ag100
ag100
ag100
ag100
ag100
ag100
ag100
ag100
ag100
ag100
ag100
ag100
ag100
ag100
ag100
ag100
ag100
aS'bkg'
p101
ag18
aS'VBFH'
p102
aS'VH'
p103
aS'ggH'
p104
aS'ggHHkl0kt1'
p105
aS'ggHHkl1kt1'
p106
aS'ggHHkl2p45kt1'
p107
aS'ggHHkl5kt1'
p108
aS'ttH'
p109
ag102
ag103
ag104
ag105
ag106
ag107
ag108
ag109
ag102
ag103
ag104
ag105
ag106
ag107
ag108
ag109
aS'bkg_mass'
p110
aS'data_obs'
p111
aS'VBFH_2016_hgg'
p112
aS'VH_2016_hgg'
p113
aS'ggH_2016_hgg'
p114
aS'ggHHkl0kt1_2016_hgg'
p115
aS'ggHHkl1kt1_2016_hgg'
p116
aS'ggHHkl2p45kt1_2016_hgg'
p117
aS'ggHHkl5kt1_2016_hgg'
p118
aS'ttH_2016_hgg'
p119
aS'VBFH_2017_hgg'
p120
aS'VH_2017_hgg'
p121
aS'ggH_2017_hgg'
p122
aS'ggHHkl0kt1_2017_hgg'
p123
aS'ggHHkl1kt1_2017_hgg'
p124
aS'ggHHkl2p45kt1_2017_hgg'
p125
aS'ggHHkl5kt1_2017_hgg'
p126
aS'ttH_2017_hgg'
p127
aS'VBFH_2018_hgg'
p128
aS'VH_2018_hgg'
p129
aS'ggH_2018_hgg'
p130
aS'ggHHkl0kt1_2018_hgg'
p131
aS'ggHHkl1kt1_2018_hgg'
p132
aS'ggHHkl2p45kt1_2018_hgg'
p133
aS'ggHHkl5kt1_2018_hgg'
p134
aS'ttH_2018_hgg'
p135
ag110
ag111
ag102
ag103
ag104
ag105
ag106
ag107
ag108
ag109
ag102
ag103
ag104
ag105
ag106
ag107
ag108
ag109
ag102
ag103
ag104
ag105
ag106
ag107
ag108
ag109
aS'-'
p136
ag136
aS'SR2'
p137
ag137
ag137
ag137
ag137
ag137
ag137
ag137
ag137
ag137
ag137
ag137
ag137
ag137
ag137
ag137
ag137
ag137
ag137
ag137
ag137
ag137
ag137
ag137
ag137
ag137
aS'/home/users/fsetti/HHggTauTau/coupling_scan/CMSSW_10_2_13/src/flashggFinalFit/files_systs/08Apr2022//ws_signal_2016/output_VBFH_M125_13TeV_pythia8_VBFH.root'
p138
aS'/home/users/fsetti/HHggTauTau/coupling_scan/CMSSW_10_2_13/src/flashggFinalFit/files_systs/08Apr2022//ws_signal_2016/output_VH_M125_13TeV_pythia8_VH.root'
p139
aS'/home/users/fsetti/HHggTauTau/coupling_scan/CMSSW_10_2_13/src/flashggFinalFit/files_systs/08Apr2022//ws_signal_2016/output_ggH_M125_13TeV_pythia8_ggH.root'
p140
aS'/home/users/fsetti/HHggTauTau/coupling_scan/CMSSW_10_2_13/src/flashggFinalFit/files_systs/08Apr2022//ws_signal_2016/output_ggHHkl0kt1_M125_13TeV_pythia8_ggHHkl0kt1.root'
p141
aS'/home/users/fsetti/HHggTauTau/coupling_scan/CMSSW_10_2_13/src/flashggFinalFit/files_systs/08Apr2022//ws_signal_2016/output_ggHHkl1kt1_M125_13TeV_pythia8_ggHHkl1kt1.root'
p142
aS'/home/users/fsetti/HHggTauTau/coupling_scan/CMSSW_10_2_13/src/flashggFinalFit/files_systs/08Apr2022//ws_signal_2016/output_ggHHkl2p45kt1_M125_13TeV_pythia8_ggHHkl2p45kt1.root'
p143
aS'/home/users/fsetti/HHggTauTau/coupling_scan/CMSSW_10_2_13/src/flashggFinalFit/files_systs/08Apr2022//ws_signal_2016/output_ggHHkl5kt1_M125_13TeV_pythia8_ggHHkl5kt1.root'
p144
aS'/home/users/fsetti/HHggTauTau/coupling_scan/CMSSW_10_2_13/src/flashggFinalFit/files_systs/08Apr2022//ws_signal_2016/output_ttH_M125_13TeV_pythia8_ttH.root'
p145
aS'/home/users/fsetti/HHggTauTau/coupling_scan/CMSSW_10_2_13/src/flashggFinalFit/files_systs/08Apr2022//ws_signal_2017/output_VBFH_M125_13TeV_pythia8_VBFH.root'
p146
aS'/home/users/fsetti/HHggTauTau/coupling_scan/CMSSW_10_2_13/src/flashggFinalFit/files_systs/08Apr2022//ws_signal_2017/output_VH_M125_13TeV_pythia8_VH.root'
p147
aS'/home/users/fsetti/HHggTauTau/coupling_scan/CMSSW_10_2_13/src/flashggFinalFit/files_systs/08Apr2022//ws_signal_2017/output_ggH_M125_13TeV_pythia8_ggH.root'
p148
aS'/home/users/fsetti/HHggTauTau/coupling_scan/CMSSW_10_2_13/src/flashggFinalFit/files_systs/08Apr2022//ws_signal_2017/output_ggHHkl0kt1_M125_13TeV_pythia8_ggHHkl0kt1.root'
p149
aS'/home/users/fsetti/HHggTauTau/coupling_scan/CMSSW_10_2_13/src/flashggFinalFit/files_systs/08Apr2022//ws_signal_2017/output_ggHHkl1kt1_M125_13TeV_pythia8_ggHHkl1kt1.root'
p150
aS'/home/users/fsetti/HHggTauTau/coupling_scan/CMSSW_10_2_13/src/flashggFinalFit/files_systs/08Apr2022//ws_signal_2017/output_ggHHkl2p45kt1_M125_13TeV_pythia8_ggHHkl2p45kt1.root'
p151
aS'/home/users/fsetti/HHggTauTau/coupling_scan/CMSSW_10_2_13/src/flashggFinalFit/files_systs/08Apr2022//ws_signal_2017/output_ggHHkl5kt1_M125_13TeV_pythia8_ggHHkl5kt1.root'
p152
aS'/home/users/fsetti/HHggTauTau/coupling_scan/CMSSW_10_2_13/src/flashggFinalFit/files_systs/08Apr2022//ws_signal_2017/output_ttH_M125_13TeV_pythia8_ttH.root'
p153
aS'/home/users/fsetti/HHggTauTau/coupling_scan/CMSSW_10_2_13/src/flashggFinalFit/files_systs/08Apr2022//ws_signal_2018/output_VBFH_M125_13TeV_pythia8_VBFH.root'
p154
aS'/home/users/fsetti/HHggTauTau/coupling_scan/CMSSW_10_2_13/src/flashggFinalFit/files_systs/08Apr2022//ws_signal_2018/output_VH_M125_13TeV_pythia8_VH.root'
p155
aS'/home/users/fsetti/HHggTauTau/coupling_scan/CMSSW_10_2_13/src/flashggFinalFit/files_systs/08Apr2022//ws_signal_2018/output_ggH_M125_13TeV_pythia8_ggH.root'
p156
aS'/home/users/fsetti/HHggTauTau/coupling_scan/CMSSW_10_2_13/src/flashggFinalFit/files_systs/08Apr2022//ws_signal_2018/output_ggHHkl0kt1_M125_13TeV_pythia8_ggHHkl0kt1.root'
p157
aS'/home/users/fsetti/HHggTauTau/coupling_scan/CMSSW_10_2_13/src/flashggFinalFit/files_systs/08Apr2022//ws_signal_2018/output_ggHHkl1kt1_M125_13TeV_pythia8_ggHHkl1kt1.root'
p158
aS'/home/users/fsetti/HHggTauTau/coupling_scan/CMSSW_10_2_13/src/flashggFinalFit/files_systs/08Apr2022//ws_signal_2018/output_ggHHkl2p45kt1_M125_13TeV_pythia8_ggHHkl2p45kt1.root'
p159
aS'/home/users/fsetti/HHggTauTau/coupling_scan/CMSSW_10_2_13/src/flashggFinalFit/files_systs/08Apr2022//ws_signal_2018/output_ggHHkl5kt1_M125_13TeV_pythia8_ggHHkl5kt1.root'
p160
aS'/home/users/fsetti/HHggTauTau/coupling_scan/CMSSW_10_2_13/src/flashggFinalFit/files_systs/08Apr2022//ws_signal_2018/output_ttH_M125_13TeV_pythia8_ttH.root'
p161
ag136
ag136
aS'VBFH_125_13TeV_SR2'
p162
aS'VH_125_13TeV_SR2'
p163
aS'ggH_125_13TeV_SR2'
p164
aS'ggHHkl0kt1_125_13TeV_SR2'
p165
aS'ggHHkl1kt1_125_13TeV_SR2'
p166
aS'ggHHkl2p45kt1_125_13TeV_SR2'
p167
aS'ggHHkl5kt1_125_13TeV_SR2'
p168
aS'ttH_125_13TeV_SR2'
p169
aS'VBFH_125_13TeV_SR2'
p170
aS'VH_125_13TeV_SR2'
p171
aS'ggH_125_13TeV_SR2'
p172
aS'ggHHkl0kt1_125_13TeV_SR2'
p173
aS'ggHHkl1kt1_125_13TeV_SR2'
p174
aS'ggHHkl2p45kt1_125_13TeV_SR2'
p175
aS'ggHHkl5kt1_125_13TeV_SR2'
p176
aS'ttH_125_13TeV_SR2'
p177
aS'VBFH_125_13TeV_SR2'
p178
aS'VH_125_13TeV_SR2'
p179
aS'ggH_125_13TeV_SR2'
p180
aS'ggHHkl0kt1_125_13TeV_SR2'
p181
aS'ggHHkl1kt1_125_13TeV_SR2'
p182
aS'ggHHkl2p45kt1_125_13TeV_SR2'
p183
aS'ggHHkl5kt1_125_13TeV_SR2'
p184
aS'ttH_125_13TeV_SR2'
p185
ag136
ag136
aS'./Models/signal/CMS-HGG_sigfit_packaged_SR2.root'
p186
aS'./Models/signal/CMS-HGG_sigfit_packaged_SR2.root'
p187
aS'./Models/signal/CMS-HGG_sigfit_packaged_SR2.root'
p188
aS'./Models/signal/CMS-HGG_sigfit_packaged_SR2.root'
p189
aS'./Models/signal/CMS-HGG_sigfit_packaged_SR2.root'
p190
aS'./Models/signal/CMS-HGG_sigfit_packaged_SR2.root'
p191
aS'./Models/signal/CMS-HGG_sigfit_packaged_SR2.root'
p192
aS'./Models/signal/CMS-HGG_sigfit_packaged_SR2.root'
p193
aS'./Models/signal/CMS-HGG_sigfit_packaged_SR2.root'
p194
aS'./Models/signal/CMS-HGG_sigfit_packaged_SR2.root'
p195
aS'./Models/signal/CMS-HGG_sigfit_packaged_SR2.root'
p196
aS'./Models/signal/CMS-HGG_sigfit_packaged_SR2.root'
p197
aS'./Models/signal/CMS-HGG_sigfit_packaged_SR2.root'
p198
aS'./Models/signal/CMS-HGG_sigfit_packaged_SR2.root'
p199
aS'./Models/signal/CMS-HGG_sigfit_packaged_SR2.root'
p200
aS'./Models/signal/CMS-HGG_sigfit_packaged_SR2.root'
p201
aS'./Models/signal/CMS-HGG_sigfit_packaged_SR2.root'
p202
aS'./Models/signal/CMS-HGG_sigfit_packaged_SR2.root'
p203
aS'./Models/signal/CMS-HGG_sigfit_packaged_SR2.root'
p204
aS'./Models/signal/CMS-HGG_sigfit_packaged_SR2.root'
p205
aS'./Models/signal/CMS-HGG_sigfit_packaged_SR2.root'
p206
aS'./Models/signal/CMS-HGG_sigfit_packaged_SR2.root'
p207
aS'./Models/signal/CMS-HGG_sigfit_packaged_SR2.root'
p208
aS'./Models/signal/CMS-HGG_sigfit_packaged_SR2.root'
p209
aS'./Models/background/CMS-HGG_multipdf_SR2.root'
p210
ag210
aS'wsig_13TeV:hggpdfsmrel_VBFH_2016_SR2_13TeV'
p211
aS'wsig_13TeV:hggpdfsmrel_VH_2016_SR2_13TeV'
p212
aS'wsig_13TeV:hggpdfsmrel_ggH_2016_SR2_13TeV'
p213
aS'wsig_13TeV:hggpdfsmrel_ggHHkl0kt1_2016_SR2_13TeV'
p214
aS'wsig_13TeV:hggpdfsmrel_ggHHkl1kt1_2016_SR2_13TeV'
p215
aS'wsig_13TeV:hggpdfsmrel_ggHHkl2p45kt1_2016_SR2_13TeV'
p216
aS'wsig_13TeV:hggpdfsmrel_ggHHkl5kt1_2016_SR2_13TeV'
p217
aS'wsig_13TeV:hggpdfsmrel_ttH_2016_SR2_13TeV'
p218
aS'wsig_13TeV:hggpdfsmrel_VBFH_2017_SR2_13TeV'
p219
aS'wsig_13TeV:hggpdfsmrel_VH_2017_SR2_13TeV'
p220
aS'wsig_13TeV:hggpdfsmrel_ggH_2017_SR2_13TeV'
p221
aS'wsig_13TeV:hggpdfsmrel_ggHHkl0kt1_2017_SR2_13TeV'
p222
aS'wsig_13TeV:hggpdfsmrel_ggHHkl1kt1_2017_SR2_13TeV'
p223
aS'wsig_13TeV:hggpdfsmrel_ggHHkl2p45kt1_2017_SR2_13TeV'
p224
aS'wsig_13TeV:hggpdfsmrel_ggHHkl5kt1_2017_SR2_13TeV'
p225
aS'wsig_13TeV:hggpdfsmrel_ttH_2017_SR2_13TeV'
p226
aS'wsig_13TeV:hggpdfsmrel_VBFH_2018_SR2_13TeV'
p227
aS'wsig_13TeV:hggpdfsmrel_VH_2018_SR2_13TeV'
p228
aS'wsig_13TeV:hggpdfsmrel_ggH_2018_SR2_13TeV'
p229
aS'wsig_13TeV:hggpdfsmrel_ggHHkl0kt1_2018_SR2_13TeV'
p230
aS'wsig_13TeV:hggpdfsmrel_ggHHkl1kt1_2018_SR2_13TeV'
p231
aS'wsig_13TeV:hggpdfsmrel_ggHHkl2p45kt1_2018_SR2_13TeV'
p232
aS'wsig_13TeV:hggpdfsmrel_ggHHkl5kt1_2018_SR2_13TeV'
p233
aS'wsig_13TeV:hggpdfsmrel_ttH_2018_SR2_13TeV'
p234
aS'multipdf:CMS_hgg_SR2_13TeV_bkgshape'
p235
aS'multipdf:roohist_data_mass_SR2'
p236
aI1000
aI1000
aI1000
aI1000
aI1000
aI1000
aI1000
aI1000
aI1000
aI1000
aI1000
aI1000
aI1000
aI1000
aI1000
aI1000
aI1000
aI1000
aI1000
aI1000
aI1000
aI1000
aI1000
aI1000
aF1.0
aI-1
aF0.028334046124417627
aF0.24746134245386414
aF0.055023074032459464
aF0.11803877108908191
aF0.05133894251514629
aF0.016899586596965558
aF0.07250364934925954
aF0.08878550123670126
aF0.029669176689712674
aF0.3258436939820452
aF0.09585964738870809
aF0.10345417635403077
aF0.05598826866247189
aF0.01563647939827042
aF0.08437606783854311
aF0.09004953027080696
aF0.04294716004075552
aF0.45603102282113994
aF0.15163858425540466
aF0.1748353420023474
aF0.08544780389801794
aF0.02033115233310134
aF0.12542685989248611
aF0.14030091821282056
ag136
ag136
aF2.9514186064764696e-05
aF0.0001519737833127604
aF0.00020323721047552275
aF0.0001727956666073358
aF5.49046451381026e-08
aF3.1986458154838778e-06
aF1.8629519997541542e-07
aF4.091152272749018e-05
aF6.686675121022511e-05
aF0.00020173852023664041
aF0.0009926770411168896
aF2.22074913117299e-07
aF6.521451444447497e-08
aF1.4138112366034036e-07
aF2.3586991199473178e-07
aF4.404810810386048e-05
aF0.00014279476269530794
aF0.00042009287043511787
aF0.0017424702216212343
aF5.829957182092576e-07
aF1.4529193033945109e-07
aF1.2342712695571728e-06
aF4.970965127654992e-07
aF0.00010067589051258015
ag136
ag136
aF0.028334046124417627
aF0.24746134245386414
aF0.055023074032459464
aF0.11803877108908191
aF0.05133894251514629
aF0.016899586596965558
aF0.07250364934925954
aF0.08878550123670126
aF0.029669176689712674
aF0.3258436939820452
aF0.09585964738870809
aF0.10345417635403077
aF0.05598826866247189
aF0.01563647939827042
aF0.08437606783854311
aF0.09004953027080696
aF0.04294716004075552
aF0.45603102282113994
aF0.15163858425540466
aF0.1748353420023474
aF0.08544780389801794
aF0.02033115233310134
aF0.12542685989248611
aF0.14030091821282056
ag136
ag136
aF0.028136748485884006
aF0.24555482928717476
aF0.054602939956702734
aF0.1171945593184589
aF0.05096119706701414
aF0.016777619820196814
aF0.07199372438130647
aF0.08809301308824104
aF0.029135241094945162
aF0.31925983145482867
aF0.09408695334897997
aF0.10142231462058111
aF0.05488457369303059
aF0.01532739683795003
aF0.08276134697354542
aF0.08838616525136529
aF0.042185702780050134
aF0.4473241694720886
aF0.1492143160839453
aF0.1715700273626774
aF0.08385323742761791
aF0.019951416865614413
aF0.12315183714088102
aF0.1380166647926829
ag136
ag136
aF0.02805305289845641
aF0.24450009035916279
aF0.05437433850518691
aF0.1167291074533894
aF0.0507477829862395
aF0.016713754231386678
aF0.07169806508487829
aF0.0877152362825144
aF0.02900324407314995
aF0.3173471913550716
aF0.09364161667363571
aF0.10081262318053488
aF0.05455229513232459
aF0.015236827521270715
aF0.08228121610351984
aF0.08793968349122504
aF0.04203701403454962
aF0.44566837096978035
aF0.14876188671193327
aF0.1709503007252311
aF0.08355185925326346
aF0.0198802450507745
aF0.12272139550746555
aF0.13762420465914124
ag136
ag136
aF0.028319676173572655
aF0.24724493086897192
aF0.05499604368995033
aF0.1178401716977985
aF0.05125174103181131
aF0.016880016807382096
aF0.0722839393409831
aF0.08839822075535714
aF0.029643749746903265
aF0.32523403697314973
aF0.09581612870702444
aF0.10307378060587251
aF0.05581712729432546
aF0.015603344700732043
aF0.08396104925808769
aF0.08947671589299788
aF0.04290219080258341
aF0.45544285046915894
aF0.1518570476833477
aF0.17413392894658697
aF0.08515804937059147
aF0.02028521807816095
aF0.12467718873929814
aF0.13928161219911392
ag136
ag136
aF0.02828901564842203
aF0.24678787859111173
aF0.05486898058814361
aF0.11732773090864153
aF0.051042131078139756
aF0.01683412792876197
aF0.07177946418693708
aF0.0875451187639117
aF0.029615545914110683
aF0.32462290820713485
aF0.09590316607039176
aF0.1026276512578112
aF0.05560394003416802
aF0.015551490864292685
aF0.08344857814239492
aF0.08868055540763643
aF0.04284682514194377
aF0.45484146042273654
aF0.15203274700900898
aF0.1732781699667881
aF0.08480643166478187
aF0.020212876510283175
aF0.12376618608840544
aF0.13802890107504573
ag136
ag136
aF0.02836684132119983
aF0.2474115080410835
aF0.055048026835454796
aF0.11798255983391046
aF0.051315819000642415
aF0.016888490354163194
aF0.07244299446718479
aF0.08865750774183831
aF0.02970444017361904
aF0.3259836165980581
aF0.0958587515563405
aF0.10355714428472977
aF0.05603576427285914
aF0.015647040737075554
aF0.08447989759540682
aF0.09019282821662401
aF0.04294129242769795
aF0.455859473656355
aF0.15163858425540466
aF0.1746337608752008
aF0.08537042359987967
aF0.020316828198814574
aF0.12520285961185343
aF0.14010103972381444
ag136
ag136
aF0.02835962345391366
aF0.24736794110625798
aF0.05504277812411051
aF0.1179104324218073
aF0.05128533854989673
aF0.016878693666798054
aF0.07237241190996692
aF0.08856430304563291
aF0.02969737444722898
aF0.325900516709832
aF0.0958394488689252
aF0.10349128061902972
aF0.056004569435017346
aF0.01563997601760249
aF0.08440724147129375
aF0.09009126894819545
aF0.042934951359572995
aF0.4557839277070713
aF0.15163858425540466
aF0.17454741019692852
aF0.08533581346333553
aF0.02031094431293923
aF0.12511387053006012
aF0.13999817884908483
ag136
ag136
aF0.028367877898737955
aF0.24747625335021847
aF0.05503600963189926
aF0.11810596324932568
aF0.051366824635565016
aF0.016906329783302993
aF0.07256861106716449
aF0.08884086749110373
aF0.029704899191515706
aF0.32609905907796866
aF0.095894999354596
aF0.10366644852978579
aF0.056086017424217594
aF0.0156583090434701
aF0.08460626658255521
aF0.09035804724128912
aF0.042946707535647416
aF0.4560450188257794
aF0.15163858425540466
aF0.174855369187304
aF0.0854573537684185
aF0.02033168026954863
aF0.12544277897998943
aF0.14033949991207018
ag136
ag136
aF0.028358586738015213
aF0.24730344694648418
aF0.055054766733168434
aF0.11778709736731856
aF0.05123435994700838
aF0.016860878039454054
aF0.07224685940801354
aF0.0883813443982068
aF0.02969691528502927
aF0.32578539455222544
aF0.09580320130432446
aF0.10338203887830273
aF0.05595434971276843
aF0.015628713566493906
aF0.08428093610695152
aF0.08992617689861764
aF0.04292951414998718
aF0.45559854153882123
aF0.15163858425540466
aF0.17432592573185193
aF0.08524893579573431
aF0.020296097021011004
aF0.12487406061751595
aF0.1397601064106056
ag136
ag136
aF0.028112900645088503
aF0.245546107834754
aF0.05437176004165189
aF0.11679930973411684
aF0.05078293107379462
aF0.016740657704568892
aF0.07165903518526384
aF0.08801569788467496
aF0.029378901627950465
aF0.32184208837912864
aF0.09537008743180303
aF0.10190720344058679
aF0.05517116394457711
aF0.015424652708120002
aF0.08303852742804281
aF0.0889568003150121
aF0.04243284136883332
aF0.45084311257770365
aF0.1498720867617092
aF0.17273971869602767
aF0.08446145839804614
aF0.020102319056238306
aF0.12382079355173502
aF0.13879838963088656
ag136
ag136
aF0.028003541185902814
aF0.24454251153927123
aF0.05410574619992272
aF0.11630281441978112
aF0.05056218101633932
aF0.016669032235193757
aF0.07134887674637264
aF0.08767207755424136
aF0.029245164624333263
aF0.320065476905774
aF0.09489218464083723
aF0.10136672567639163
aF0.0548789447310805
aF0.015343221517337573
aF0.0825985325595472
aF0.08852409814164995
aF0.04222870417748134
aF0.448767011362068
aF0.14919561655952734
aF0.17194482560128027
aF0.08407616548026764
aF0.020009963716103543
aF0.1232579594044508
aF0.1381477402050408
ag136
ag136
aF0.028937137804863313
aF0.24746134245386406
aF0.05656599647388122
aF0.11799587644165191
aF0.051326907675966135
aF0.01689106526425004
aF0.0725126787560971
aF0.08908317284956378
aF0.03021635469418103
aF0.3248238783865402
aF0.0913371920544895
aF0.1033887544108784
aF0.056004946945721445
aF0.015621080908082759
aF0.08441019432090288
aF0.09001325893572022
aF0.0414818456846527
aF0.45712867758401327
aF0.15163858425540463
aF0.17488820876866118
aF0.08548547358736656
aF0.020334174898024426
aF0.12544618762287388
aF0.13953568424953539
ag136
ag136
aF0.028334046124417624
aF0.248154194537059
aF0.055023074032459464
aF0.11799609054211005
aF0.05132273284686527
aF0.016898643571423726
aF0.07253966599342733
aF0.08992878972144851
aF0.029669176689712674
aF0.3269111413617013
aF0.09585964738870809
aF0.10352678185371306
aF0.05598108624735589
aF0.0156348035877313
aF0.0843456731844781
aF0.09030878019326996
aF0.04294716004075552
aF0.45396185628468316
aF0.14636550629895156
aF0.17481089045199608
aF0.08548394351653062
aF0.02033767914946888
aF0.12536330574631321
aF0.13995419068197337
ag136
ag136
aF0.028334046124417624
aF0.24875608192457907
aF0.05847442136444202
aF0.11798078080316868
aF0.05131005458699838
aF0.016896860689756973
aF0.07247541376777585
aF0.08930783942464635
aF0.029669176689712674
aF0.325241515121252
aF0.0913371920544895
aF0.10342992508863962
aF0.05603334608030051
aF0.015632085715168657
aF0.084289043390238
aF0.08858865300840574
aF0.042079305833267716
aF0.45393668637567863
aF0.14602582718891205
aF0.17474330193251625
aF0.08544403901530614
aF0.020340763363178083
aF0.12493168560180055
aF0.13956385459737572
ag136
ag136
aF0.02838082054456114
aF0.2474087492430909
aF0.05656599647388122
aF0.1180536911874463
aF0.051320363131739016
aF0.0168821628783302
aF0.07266431450194384
aF0.0925891861409086
aF0.02964563587429654
aF0.3258621398552465
aF0.09585964738870809
aF0.10339896843530677
aF0.055962337911417234
aF0.01562639780288881
aF0.08442579671335788
aF0.09104307998395889
aF0.04062163781173879
aF0.45477348540840407
aF0.14636550629895156
aF0.1747903562501103
aF0.08549669816358532
aF0.020266133939946886
aF0.12587219681691295
aF0.14248439177278038
ag136
ag136
aF0.029387119292476345
aF0.24965978222237079
aF0.05566377751739018
aF0.11800224991145915
aF0.05135635070793976
aF0.016883016592482057
aF0.07246753695080448
aF0.08948749415288236
aF0.03063688813379617
aF0.32515507734544175
aF0.1043043559692352
aF0.103612379234434
aF0.05606295854542686
aF0.015721105797854438
aF0.08440963383348736
aF0.08941372229918777
aF0.04575397589873076
aF0.4476106478422245
aF0.1346920693944978
aF0.17497035550045403
aF0.08556718173898506
aF0.02038795373759086
aF0.1255939197102429
aF0.14179528961970175
ag136
ag136
aF0.026721357587601646
aF0.24651325068521476
aF0.05495688854152754
aF0.11808155992775511
aF0.05137060974745762
aF0.014417466198937856
aF0.07236655309751334
aF0.0857792633033406
aF0.02820346798707727
aF0.32641502876957795
aF0.0996316425363419
aF0.10338142407808094
aF0.05599936341035
aF0.015634413712443302
aF0.08440872407730951
aF0.09032249188051639
aF0.044519095353123546
aF0.45306763983954246
aF0.14613360029461667
aF0.1748281131016593
aF0.08537098364642405
aF0.019814857626250224
aF0.12546714522194227
aF0.13854093820174831
ag136
ag136
aF0.030717199286207846
aF0.2486499418478573
aF0.06351839536164161
aF0.11786102440149855
aF0.05137860643372917
aF0.016861152410847263
aF0.07216349123327088
aF0.0883267717555076
aF0.03304169598727068
aF0.3334901721030792
aF0.10780606805014259
aF0.1552359865441299
aF0.05600397546410075
aF0.015436374606455226
aF0.0843462551558217
aF0.08983915392319472
aF0.04391317207581635
aF0.4493586179220257
aF0.1350099210831011
aF0.17434615378999227
aF0.08534868167284276
aF0.020295264346429837
aF0.12548030196252874
aF0.13677064879727147
ag136
ag136
aF0.03100875097115743
aF0.25092224951055164
aF0.05108817195972521
aF0.11814633637654155
aF0.05127932315716366
aF0.014432976899161691
aF0.07260795349987499
aF0.08870280165213028
aF0.033259248765859124
aF0.32417616047521025
aF0.10626480863310438
aF0.10374997182281079
aF0.05607784719861022
aF0.015613167112094848
aF0.08454364448787924
aF0.0902475625836419
aF0.051327905221377916
aF0.45218305556584076
aF0.15113723427580614
aF0.17505063472275734
aF0.08549926357541776
aF0.02023319965262919
aF0.12547247841883952
aF0.14168204033941573
ag136
ag136
aF0.03610681059437088
aF0.2598122119888463
aF0.056247257010815205
aF0.11850322938906065
aF0.05146029019215052
aF0.016937072357490913
aF0.07271924208460362
aF0.0917586879472945
aF0.03751784624311973
aF0.32968514304366975
aF0.10167389750261074
aF0.15545315222857944
aF0.05615677308856083
aF0.015775767005692765
aF0.08486081693134771
aF0.0912340384186312
aF0.04976070773038727
aF0.45677445051805904
aF0.17953253423861026
aF0.1754793886177675
aF0.08572298133531266
aF0.019840562626210704
aF0.12608971670192828
aF0.1383953628604947
ag136
ag136
aF0.02605525537531252
aF0.2495650474347361
aF0.057552453397846114
aF0.11771990831901585
aF0.05138186968352371
aF0.014582349557274192
aF0.0723427053313424
aF0.08878969526056828
aF0.02752502666601597
aF0.3298300639907073
aF0.10778819492223804
aF0.10376219625682309
aF0.05584582411663628
aF0.01520688207015812
aF0.0845438974599947
aF0.09191666843257038
aF0.04140536762004164
aF0.4528335363644994
aF0.15161081004238
aF0.1750568110164718
aF0.08517483609549147
aF0.020192344745356368
aF0.12534389907733098
aF0.1398129158021997
ag136
ag136
aF0.028334046124417624
aF0.24746134245386406
aF0.055023074032459464
aF0.11802899555395062
aF0.051342718415401514
aF0.016899077560432636
aF0.0725034202028478
aF0.08849850771590136
aF0.029669176689712674
aF0.32584369398204527
aF0.09585964738870809
aF0.10345942482262567
aF0.055987868668872315
aF0.015635980632480877
aF0.08438695168236235
aF0.09004953027080678
aF0.04294716004075552
aF0.45603102282114
aF0.15163858425540463
aF0.174821044587566
aF0.08544566610439253
aF0.020331225539656453
aF0.1254218662936699
aF0.14006896675050787
ag136
ag136
aF0.028334046124417624
aF0.24746134245386406
aF0.055023074032459464
aF0.11803789156230692
aF0.051333058596565076
aF0.01689792557592844
aF0.0725029081550121
aF0.08878550123670131
aF0.029669176689712674
aF0.32584369398204527
aF0.09585964738870809
aF0.1034488845394052
aF0.05598955095855191
aF0.01563481037463704
aF0.08438617556627086
aF0.09020136483374887
aF0.04294716004075552
aF0.4556437749170298
aF0.15163858425540463
aF0.17482516382562796
aF0.08544793726947075
aF0.020329919945610325
aF0.12543754040117733
aF0.13985642044731708
ag136
ag136
aF0.028334046124417624
aF0.24807110361091156
aF0.055023074032459464
aF0.11812722234527612
aF0.05141438910962473
aF0.016896440856195027
aF0.07256254919595102
aF0.08878550123670131
aF0.029669176689712674
aF0.32747113777582193
aF0.09585964738870809
aF0.15542929052071489
aF0.056039648633840415
aF0.015654863658172553
aF0.08446562861922084
aF0.09019745012564463
aF0.04294716004075552
aF0.45655463449983624
aF0.15163858425540463
aF0.17496926805005794
aF0.08552587250693242
aF0.020339704995818567
aF0.1254835110940632
aF0.1400643705600669
ag136
ag136
aF0.028334046124417624
aF0.24856357218680303
aF0.055023074032459464
aF0.11790979034524618
aF0.0512625509677815
aF0.016867636093107555
aF0.07244035042936432
aF0.0890776206338326
aF0.029669176689712674
aF0.3248154924457888
aF0.09585964738870809
aF0.10324209344235855
aF0.05588873472001605
aF0.015603681609754845
aF0.08424880267059233
aF0.08943828517013974
aF0.04294716004075552
aF0.4554335820519666
aF0.15163858425540463
aF0.17459779916083382
aF0.08535181491993409
aF0.019794167362621556
aF0.12528071002863506
aF0.13988519391708215
ag136
ag136
atp237
ba(lp238
g15
(g16
(dp239
g18
g19
(g20
(I0
tp240
g22
tp241
Rp242
(I1
(I38
tp243
g29
I00
(lp244
g33
ag34
ag35
ag36
ag37
ag38
ag39
ag40
ag41
ag42
ag43
ag44
ag45
ag46
ag47
ag48
ag49
ag50
ag51
ag52
ag53
ag54
ag55
ag56
ag57
ag58
ag59
ag60
ag61
ag62
ag63
ag64
ag65
ag66
ag67
ag68
ag69
ag70
atp245
bsg72
Nstp246
Rp247
a(dp248
S'0.14.1'
p249
(dp250
S'axes'
p251
g14
sS'blocks'
p252
(lp253
(dp254
S'mgr_locs'
p255
c__builtin__
slice
p256
(I0
I38
I1
tp257
Rp258
sS'values'
p259
g93
sasstp260
bsb.