ccopy_reg
_reconstructor
p0
(cpandas.core.frame
DataFrame
p1
c__builtin__
object
p2
Ntp3
Rp4
(dp5
S'_metadata'
p6
(lp7
sS'_typ'
p8
S'dataframe'
p9
sS'_data'
p10
g0
(cpandas.core.internals
BlockManager
p11
g2
Ntp12
Rp13
((lp14
cpandas.core.indexes.base
_new_Index
p15
(cpandas.core.indexes.base
Index
p16
(dp17
S'data'
p18
cnumpy.core.multiarray
_reconstruct
p19
(cnumpy
ndarray
p20
(I0
tp21
S'b'
p22
tp23
Rp24
(I1
(I38
tp25
cnumpy
dtype
p26
(S'O8'
p27
I0
I1
tp28
Rp29
(I3
S'|'
p30
NNNI-1
I-1
I63
tp31
bI00
(lp32
S'year'
p33
aS'type'
p34
aS'procOriginal'
p35
aS'proc'
p36
aS'proc_s0'
p37
aS'cat'
p38
aS'inputWSFile'
p39
aS'nominalDataName'
p40
aS'modelWSFile'
p41
aS'model'
p42
aS'rate'
p43
aS'nominal_yield'
p44
aS'sumw2'
p45
aS'nominal_yield_COWCorr'
p46
aS'weight_electron_veto_sf_Diphoton_Photon_up_yield'
p47
aS'weight_electron_veto_sf_Diphoton_Photon_down_yield'
p48
aS'weight_electron_id_sf_SelectedElectron_up_yield'
p49
aS'weight_electron_id_sf_SelectedElectron_down_yield'
p50
aS'weight_muon_id_sfSTAT_SelectedMuon_up_yield'
p51
aS'weight_muon_id_sfSTAT_SelectedMuon_down_yield'
p52
aS'weight_muon_id_sfSYS_SelectedMuon_up_yield'
p53
aS'weight_muon_id_sfSYS_SelectedMuon_down_yield'
p54
aS'weight_trigger_sf_up_yield'
p55
aS'weight_trigger_sf_down_yield'
p56
aS'JER_up_yield'
p57
aS'JER_down_yield'
p58
aS'JES_up_yield'
p59
aS'JES_down_yield'
p60
aS'MET_JER_up_yield'
p61
aS'MET_JER_down_yield'
p62
aS'MET_JES_up_yield'
p63
aS'MET_JES_down_yield'
p64
aS'MET_Unclustered_up_yield'
p65
aS'MET_Unclustered_down_yield'
p66
aS'Muon_pt_up_yield'
p67
aS'Muon_pt_down_yield'
p68
aS'Tau_pt_up_yield'
p69
aS'Tau_pt_down_yield'
p70
atp71
bsS'name'
p72
Nstp73
Rp74
ag15
(cpandas.core.indexes.numeric
Int64Index
p75
(dp76
g18
g19
(g20
(I0
tp77
g22
tp78
Rp79
(I1
(I17
tp80
g26
(S'i8'
p81
I0
I1
tp82
Rp83
(I3
S'<'
p84
NNNI-1
I-1
I0
tp85
bI00
S'\x00\x00\x00\x00\x00\x00\x00\x00\x01\x00\x00\x00\x00\x00\x00\x00\x02\x00\x00\x00\x00\x00\x00\x00\x03\x00\x00\x00\x00\x00\x00\x00\x04\x00\x00\x00\x00\x00\x00\x00\x05\x00\x00\x00\x00\x00\x00\x00\x06\x00\x00\x00\x00\x00\x00\x00\x07\x00\x00\x00\x00\x00\x00\x00\x08\x00\x00\x00\x00\x00\x00\x00\t\x00\x00\x00\x00\x00\x00\x00\n\x00\x00\x00\x00\x00\x00\x00\x0b\x00\x00\x00\x00\x00\x00\x00\x0c\x00\x00\x00\x00\x00\x00\x00\r\x00\x00\x00\x00\x00\x00\x00\x0e\x00\x00\x00\x00\x00\x00\x00\x0f\x00\x00\x00\x00\x00\x00\x00\x10\x00\x00\x00\x00\x00\x00\x00'
p86
tp87
bsg72
Nstp88
Rp89
a(lp90
g19
(g20
(I0
tp91
g22
tp92
Rp93
(I1
(I38
I17
tp94
g29
I00
(lp95
S'2016'
p96
ag96
ag96
ag96
ag96
aS'2017'
p97
ag97
ag97
ag97
ag97
aS'2018'
p98
ag98
ag98
ag98
ag98
aS'merged'
p99
ag99
aS'sig'
p100
ag100
ag100
ag100
ag100
ag100
ag100
ag100
ag100
ag100
ag100
ag100
ag100
ag100
ag100
aS'bkg'
p101
ag18
aS'VBFH'
p102
aS'VH'
p103
aS'ggH'
p104
aS'ggHHbm11'
p105
aS'ttH'
p106
ag102
ag103
ag104
ag105
ag106
ag102
ag103
ag104
ag105
ag106
aS'bkg_mass'
p107
aS'data_obs'
p108
aS'VBFH_2016_hgg'
p109
aS'VH_2016_hgg'
p110
aS'ggH_2016_hgg'
p111
aS'ggHHbm11_2016_hgg'
p112
aS'ttH_2016_hgg'
p113
aS'VBFH_2017_hgg'
p114
aS'VH_2017_hgg'
p115
aS'ggH_2017_hgg'
p116
aS'ggHHbm11_2017_hgg'
p117
aS'ttH_2017_hgg'
p118
aS'VBFH_2018_hgg'
p119
aS'VH_2018_hgg'
p120
aS'ggH_2018_hgg'
p121
aS'ggHHbm11_2018_hgg'
p122
aS'ttH_2018_hgg'
p123
ag107
ag108
ag102
ag103
ag104
ag105
ag106
ag102
ag103
ag104
ag105
ag106
ag102
ag103
ag104
ag105
ag106
aS'-'
p124
ag124
aS'SR2'
p125
ag125
ag125
ag125
ag125
ag125
ag125
ag125
ag125
ag125
ag125
ag125
ag125
ag125
ag125
ag125
ag125
aS'/home/users/fsetti/HHggTauTau/coupling_scan/CMSSW_10_2_13/src/flashggFinalFit/files_systs/18Apr2022_EFT//ws_signal_2016/output_VBFH_M125_13TeV_pythia8_VBFH.root'
p126
aS'/home/users/fsetti/HHggTauTau/coupling_scan/CMSSW_10_2_13/src/flashggFinalFit/files_systs/18Apr2022_EFT//ws_signal_2016/output_VH_M125_13TeV_pythia8_VH.root'
p127
aS'/home/users/fsetti/HHggTauTau/coupling_scan/CMSSW_10_2_13/src/flashggFinalFit/files_systs/18Apr2022_EFT//ws_signal_2016/output_ggH_M125_13TeV_pythia8_ggH.root'
p128
aS'/home/users/fsetti/HHggTauTau/coupling_scan/CMSSW_10_2_13/src/flashggFinalFit/files_systs/18Apr2022_EFT//ws_signal_2016/output_ggHHbm11_M125_13TeV_pythia8_ggHHbm11.root'
p129
aS'/home/users/fsetti/HHggTauTau/coupling_scan/CMSSW_10_2_13/src/flashggFinalFit/files_systs/18Apr2022_EFT//ws_signal_2016/output_ttH_M125_13TeV_pythia8_ttH.root'
p130
aS'/home/users/fsetti/HHggTauTau/coupling_scan/CMSSW_10_2_13/src/flashggFinalFit/files_systs/18Apr2022_EFT//ws_signal_2017/output_VBFH_M125_13TeV_pythia8_VBFH.root'
p131
aS'/home/users/fsetti/HHggTauTau/coupling_scan/CMSSW_10_2_13/src/flashggFinalFit/files_systs/18Apr2022_EFT//ws_signal_2017/output_VH_M125_13TeV_pythia8_VH.root'
p132
aS'/home/users/fsetti/HHggTauTau/coupling_scan/CMSSW_10_2_13/src/flashggFinalFit/files_systs/18Apr2022_EFT//ws_signal_2017/output_ggH_M125_13TeV_pythia8_ggH.root'
p133
aS'/home/users/fsetti/HHggTauTau/coupling_scan/CMSSW_10_2_13/src/flashggFinalFit/files_systs/18Apr2022_EFT//ws_signal_2017/output_ggHHbm11_M125_13TeV_pythia8_ggHHbm11.root'
p134
aS'/home/users/fsetti/HHggTauTau/coupling_scan/CMSSW_10_2_13/src/flashggFinalFit/files_systs/18Apr2022_EFT//ws_signal_2017/output_ttH_M125_13TeV_pythia8_ttH.root'
p135
aS'/home/users/fsetti/HHggTauTau/coupling_scan/CMSSW_10_2_13/src/flashggFinalFit/files_systs/18Apr2022_EFT//ws_signal_2018/output_VBFH_M125_13TeV_pythia8_VBFH.root'
p136
aS'/home/users/fsetti/HHggTauTau/coupling_scan/CMSSW_10_2_13/src/flashggFinalFit/files_systs/18Apr2022_EFT//ws_signal_2018/output_VH_M125_13TeV_pythia8_VH.root'
p137
aS'/home/users/fsetti/HHggTauTau/coupling_scan/CMSSW_10_2_13/src/flashggFinalFit/files_systs/18Apr2022_EFT//ws_signal_2018/output_ggH_M125_13TeV_pythia8_ggH.root'
p138
aS'/home/users/fsetti/HHggTauTau/coupling_scan/CMSSW_10_2_13/src/flashggFinalFit/files_systs/18Apr2022_EFT//ws_signal_2018/output_ggHHbm11_M125_13TeV_pythia8_ggHHbm11.root'
p139
aS'/home/users/fsetti/HHggTauTau/coupling_scan/CMSSW_10_2_13/src/flashggFinalFit/files_systs/18Apr2022_EFT//ws_signal_2018/output_ttH_M125_13TeV_pythia8_ttH.root'
p140
ag124
ag124
aS'VBFH_125_13TeV_SR2'
p141
aS'VH_125_13TeV_SR2'
p142
aS'ggH_125_13TeV_SR2'
p143
aS'ggHHbm11_125_13TeV_SR2'
p144
aS'ttH_125_13TeV_SR2'
p145
aS'VBFH_125_13TeV_SR2'
p146
aS'VH_125_13TeV_SR2'
p147
aS'ggH_125_13TeV_SR2'
p148
aS'ggHHbm11_125_13TeV_SR2'
p149
aS'ttH_125_13TeV_SR2'
p150
aS'VBFH_125_13TeV_SR2'
p151
aS'VH_125_13TeV_SR2'
p152
aS'ggH_125_13TeV_SR2'
p153
aS'ggHHbm11_125_13TeV_SR2'
p154
aS'ttH_125_13TeV_SR2'
p155
ag124
ag124
aS'./Models/signal/CMS-HGG_sigfit_packaged_SR2.root'
p156
aS'./Models/signal/CMS-HGG_sigfit_packaged_SR2.root'
p157
aS'./Models/signal/CMS-HGG_sigfit_packaged_SR2.root'
p158
aS'./Models/signal/CMS-HGG_sigfit_packaged_SR2.root'
p159
aS'./Models/signal/CMS-HGG_sigfit_packaged_SR2.root'
p160
aS'./Models/signal/CMS-HGG_sigfit_packaged_SR2.root'
p161
aS'./Models/signal/CMS-HGG_sigfit_packaged_SR2.root'
p162
aS'./Models/signal/CMS-HGG_sigfit_packaged_SR2.root'
p163
aS'./Models/signal/CMS-HGG_sigfit_packaged_SR2.root'
p164
aS'./Models/signal/CMS-HGG_sigfit_packaged_SR2.root'
p165
aS'./Models/signal/CMS-HGG_sigfit_packaged_SR2.root'
p166
aS'./Models/signal/CMS-HGG_sigfit_packaged_SR2.root'
p167
aS'./Models/signal/CMS-HGG_sigfit_packaged_SR2.root'
p168
aS'./Models/signal/CMS-HGG_sigfit_packaged_SR2.root'
p169
aS'./Models/signal/CMS-HGG_sigfit_packaged_SR2.root'
p170
aS'./Models/background/CMS-HGG_multipdf_SR2.root'
p171
ag171
aS'wsig_13TeV:hggpdfsmrel_VBFH_2016_SR2_13TeV'
p172
aS'wsig_13TeV:hggpdfsmrel_VH_2016_SR2_13TeV'
p173
aS'wsig_13TeV:hggpdfsmrel_ggH_2016_SR2_13TeV'
p174
aS'wsig_13TeV:hggpdfsmrel_ggHHbm11_2016_SR2_13TeV'
p175
aS'wsig_13TeV:hggpdfsmrel_ttH_2016_SR2_13TeV'
p176
aS'wsig_13TeV:hggpdfsmrel_VBFH_2017_SR2_13TeV'
p177
aS'wsig_13TeV:hggpdfsmrel_VH_2017_SR2_13TeV'
p178
aS'wsig_13TeV:hggpdfsmrel_ggH_2017_SR2_13TeV'
p179
aS'wsig_13TeV:hggpdfsmrel_ggHHbm11_2017_SR2_13TeV'
p180
aS'wsig_13TeV:hggpdfsmrel_ttH_2017_SR2_13TeV'
p181
aS'wsig_13TeV:hggpdfsmrel_VBFH_2018_SR2_13TeV'
p182
aS'wsig_13TeV:hggpdfsmrel_VH_2018_SR2_13TeV'
p183
aS'wsig_13TeV:hggpdfsmrel_ggH_2018_SR2_13TeV'
p184
aS'wsig_13TeV:hggpdfsmrel_ggHHbm11_2018_SR2_13TeV'
p185
aS'wsig_13TeV:hggpdfsmrel_ttH_2018_SR2_13TeV'
p186
aS'multipdf:CMS_hgg_SR2_13TeV_bkgshape'
p187
aS'multipdf:roohist_data_mass_SR2'
p188
aI1000
aI1000
aI1000
aI1000
aI1000
aI1000
aI1000
aI1000
aI1000
aI1000
aI1000
aI1000
aI1000
aI1000
aI1000
aF1.0
aI-1
aF0.03629795645351387
aF0.2612363247342023
aF0.062118533760384655
aF0.04963893304666811
aF0.09455280385140989
aF0.03826259095071526
aF0.3386148408337436
aF0.10816784401661768
aF0.04650375672289188
aF0.09490673434352848
aF0.05114051132884604
aF0.4806775316964755
aF0.17361268059830753
aF0.08214007454732807
aF0.14860586275256604
ag124
ag124
aF3.3755492457591325e-05
aF0.0001588863970774427
aF0.00023051967424565534
aF1.675846919289935e-07
aF4.350832296102163e-05
aF7.683400439939852e-05
aF0.0002084760506294538
aF0.0010675234081233024
aF1.7110775377347507e-07
aF4.723418549375812e-05
aF0.00015906907013511014
aF0.0004455346418757754
aF0.0018632096883016928
aF4.48212902654828e-07
aF0.00010736075293524181
ag124
ag124
aF0.03629795645351387
aF0.2612363247342023
aF0.062118533760384655
aF0.04963893304666811
aF0.09455280385140989
aF0.03826259095071526
aF0.3386148408337436
aF0.10816784401661768
aF0.04650375672289188
aF0.09490673434352848
aF0.05114051132884604
aF0.4806775316964755
aF0.17361268059830753
aF0.08214007454732807
aF0.14860586275256604
ag124
ag124
aF0.036030199563717565
aF0.2592321709828348
aF0.0616383321498843
aF0.04963893304666811
aF0.0938232194925735
aF0.03758624539029094
aF0.33177285819074565
aF0.10620670148672094
aF0.04650375672289188
aF0.09315761946824906
aF0.05025587718458387
aF0.4714419670832277
aF0.17090804427534684
aF0.08214007454732807
aF0.14620434038862962
ag124
ag124
aF0.0359204218136133
aF0.25812943781844105
aF0.06137370961772658
aF0.04954191080722034
aF0.09342548697863093
aF0.03740069816541412
aF0.3297721896398148
aF0.10583426569297198
aF0.04637035643051736
aF0.09269143159301009
aF0.050083856737984836
aF0.46969185753071363
aF0.17041197114036857
aF0.08200158767351916
aF0.14579271257835663
ag124
ag124
aF0.03628358650266889
aF0.26102491931705996
aF0.06209150341787551
aF0.04963893304666811
aF0.09417247007146366
aF0.03823716400790586
aF0.3379588335426547
aF0.108124325334934
aF0.04650375672289188
aF0.09428277912161187
aF0.051086611035175124
aF0.4800377043976626
aF0.17383114402625058
aF0.08214007454732807
aF0.14752509970095645
ag124
ag124
aF0.036252925977518266
aF0.2605808773961075
aF0.06196444031606879
aF0.049545360829209746
aF0.0932821741056301
aF0.038208960175113264
aF0.33724552883895736
aF0.10821136269830135
aF0.04640586759268525
aF0.09342832620533881
aF0.05100822804768856
aF0.47941450640948835
aF0.17400684335191186
aF0.08197706754835385
aF0.1461893719489084
ag124
ag124
aF0.03633075165029606
aF0.2611864903214217
aF0.06214884690342982
aF0.04963893304666811
aF0.09441527297676637
aF0.03829785443462162
aF0.33876814884513673
aF0.1081671360731102
aF0.04650375672289188
aF0.09503904874929547
aF0.051134643715788484
aF0.48048637422107116
aF0.17361268059830753
aF0.08214007454732807
aF0.14839006540596233
ag124
ag124
aF0.036323533783009905
aF0.2611429233865962
aF0.06213744573050484
aF0.049625688275519775
aF0.09431429930996793
aF0.03829078870823157
aF0.33867973745700897
aF0.1081664686584538
aF0.04649193611123935
aF0.09493847576437885
aF0.051128302647663514
aF0.4804049817505509
aF0.17361268059830753
aF0.08212357228896716
aF0.1482764592438386
ag124
ag124
aF0.036331788227834186
aF0.26125123563055663
aF0.062143830824849866
aF0.04963893304666811
aF0.09461201879548908
aF0.0382983134525183
aF0.33889536895141775
aF0.10817117880115613
aF0.04650375672289188
aF0.09520558006700701
aF0.051140058823737934
aF0.48068988976757904
aF0.17361268059830753
aF0.08214007454732807
aF0.1486444053507848
ag124
ag124
aF0.03632249706711146
aF0.2610784292268223
aF0.062142433428760906
aF0.0495799982883491
aF0.0941179916380417
aF0.03829032954603186
aF0.33855283913943235
aF0.10816241864014832
aF0.04645239318251235
aF0.09477207067655503
aF0.05112286543807768
aF0.4802016312620151
aF0.17361268059830753
aF0.0820384282668648
aF0.14802247868718243
ag124
ag124
aF0.03602099280770456
aF0.2593501047971718
aF0.061408216555742884
aF0.04963893304666811
aF0.09373176217956439
aF0.0378977401890451
aF0.33438053935898226
aF0.10755710070638361
aF0.04650375672289188
aF0.09373148498343449
aF0.050422349493190646
aF0.4752558597254368
aF0.1716664943262713
aF0.08214007454732807
aF0.14704408991935924
ag124
ag124
aF0.03588012703383613
aF0.2583029024158874
aF0.061113826833324635
aF0.04953152869679125
aF0.09336522390042917
aF0.03772291677575139
aF0.33253365303624555
aF0.10705787405160479
aF0.046381148153628635
aF0.09328058131627401
aF0.05018468807456544
aF0.47307880397584434
aF0.1709021114504494
aF0.08195408544272645
aF0.1463623270186957
ag124
ag124
aF0.03686477079694472
aF0.26190286707768057
aF0.06366145620180641
aF0.04965991923299332
aF0.09432296180884688
aF0.038895920339102934
aF0.3379355829400626
aF0.10417218582822625
aF0.04645585286615505
aF0.09488663465147515
aF0.04870925320997731
aF0.4817412664468156
aF0.17361268059830753
aF0.08213537031840135
aF0.1489952645123768
ag124
ag124
aF0.03628540696200769
aF0.26128501104959007
aF0.06211853376038466
aF0.049648175145226084
aF0.09469420658009671
aF0.038284225250660164
aF0.33933560616390873
aF0.1046142604516508
aF0.04649232849861435
aF0.09489808909478865
aF0.05352679814148692
aF0.4792203867951023
aF0.17361268059830753
aF0.08211579053987632
aF0.14901954758972222
ag124
ag124
aF0.036297956453513885
aF0.2625439615880009
aF0.06057520027700595
aF0.04966986742098573
aF0.09367990139422504
aF0.038262590950715256
aF0.3376656834018424
aF0.10816784401661768
aF0.046478013618863286
aF0.0935685596499791
aF0.050933400236457205
aF0.47802506866319583
aF0.17361268059830753
aF0.08218979662271994
aF0.14836520067616749
ag124
ag124
aF0.036332181382151205
aF0.260539565755622
aF0.06366145620180641
aF0.04965579964081821
aF0.09628704717949342
aF0.03826068443524403
aF0.3389876667636579
aF0.10061860226325937
aF0.046492317761604736
aF0.09673884179157598
aF0.049582638074444844
aF0.4797498970285892
aF0.17891844836099952
aF0.08205140628085103
aF0.1518622921096623
ag124
ag124
aF0.034260703759645975
aF0.26207730422201003
aF0.05630870842223964
aF0.04978999554337283
aF0.09436516550643854
aF0.03599608833219317
aF0.33778268963766434
aF0.11987383886067285
aF0.04652643144329112
aF0.09471677397198172
aF0.05639951089946602
aF0.479605878553596
aF0.15145973707581234
aF0.08249693826272127
aF0.14942694272531293
ag124
ag124
aF0.03029314919846296
aF0.2601397128649065
aF0.062223767026246386
aF0.04964438424020588
aF0.09118419608909217
aF0.032189582225158914
aF0.3387731197449355
aF0.10395365193721283
aF0.046541444429725465
aF0.09446568949353412
aF0.051086416362816106
aF0.4786847969731843
aF0.17527738892467926
aF0.0824021873409366
aF0.14614076071265555
ag124
ag124
aF0.03521865033132333
aF0.26114714890405427
aF0.0644541937888061
aF0.04997075599695145
aF0.09413238526969364
aF0.03719285373460036
aF0.34399588042331214
aF0.11606332251615677
aF0.046636510237913695
aF0.09438530891913342
aF0.05300514451951077
aF0.47755283218705363
aF0.15693514641811843
aF0.08263927567725686
aF0.14640800297774048
ag124
ag124
aF0.03624421861251982
aF0.26472811899279314
aF0.05887477005747273
aF0.04958993233404521
aF0.09311850135666011
aF0.03821576643963414
aF0.33940649375562965
aF0.12207997683362075
aF0.046576373967588874
aF0.09513547687733095
aF0.05459610837746928
aF0.4803820070378832
aF0.16768444023184764
aF0.08202737948503358
aF0.148529063119169
ag124
ag124
aF0.04239230785129947
aF0.269709464918259
aF0.055340918962595693
aF0.049667259798407686
aF0.09601536386474106
aF0.04437381731074656
aF0.3442450994342012
aF0.10947149060030216
aF0.04666072041304658
aF0.09565012314916775
aF0.054272968577096264
aF0.48309955668264704
aF0.19041249106703864
aF0.08241961717080931
aF0.14639671671922497
ag124
ag124
aF0.03007099002797102
aF0.2611099530038395
aF0.06478770582603674
aF0.049636107498698054
aF0.09559677701610951
aF0.03196516640867982
aF0.34332260028775885
aF0.10582596563747962
aF0.04651009110380834
aF0.09554445859961874
aF0.046410399044755954
aF0.48010656388971806
aF0.16409913435986334
aF0.08234371554025248
aF0.15070859933661518
ag124
ag124
aF0.036297956453513885
aF0.2612363247342023
aF0.06211853376038466
aF0.049642405735770695
aF0.09426581033060992
aF0.038262590950715256
aF0.3386148408337427
aF0.10816784401661768
aF0.0465105075717585
aF0.09490673434352838
aF0.05114051132884605
aF0.48067753169647526
aF0.17361268059830753
aF0.08214537545933208
aF0.1486058627525659
ag124
ag124
aF0.036297956453513885
aF0.2612363247342023
aF0.06211853376038466
aF0.049645435615700374
aF0.09455280385140988
aF0.038262590950715256
aF0.3386148408337427
aF0.10816784401661768
aF0.04650375672289178
aF0.09505856890647046
aF0.05114051132884605
aF0.48029028379236505
aF0.17361268059830753
aF0.08214007454732807
aF0.14816136498706253
ag124
ag124
aF0.036297956453513885
aF0.2612804716501976
aF0.06211853376038466
aF0.04969515098030089
aF0.09483740585322797
aF0.038262590950715256
aF0.33986528214484835
aF0.10816784401661768
aF0.04659788949832082
aF0.09457931909830077
aF0.05114051132884605
aF0.4812011433751715
aF0.17361268059830753
aF0.08218727482714036
aF0.14836931509981238
ag124
ag124
aF0.036297956453513885
aF0.2623867815610217
aF0.06211853376038466
aF0.049545589321289954
aF0.09457049391421098
aF0.038262590950715256
aF0.33751590913055873
aF0.10816784401661768
aF0.04640030252183529
aF0.09432586106523505
aF0.05114051132884605
aF0.48008009092730186
aF0.17361268059830753
aF0.08210460067131492
aF0.1481901384568276
ag124
ag124
atp189
ba(lp190
g15
(g16
(dp191
g18
g19
(g20
(I0
tp192
g22
tp193
Rp194
(I1
(I38
tp195
g29
I00
(lp196
g33
ag34
ag35
ag36
ag37
ag38
ag39
ag40
ag41
ag42
ag43
ag44
ag45
ag46
ag47
ag48
ag49
ag50
ag51
ag52
ag53
ag54
ag55
ag56
ag57
ag58
ag59
ag60
ag61
ag62
ag63
ag64
ag65
ag66
ag67
ag68
ag69
ag70
atp197
bsg72
Nstp198
Rp199
a(dp200
S'0.14.1'
p201
(dp202
S'axes'
p203
g14
sS'blocks'
p204
(lp205
(dp206
S'mgr_locs'
p207
c__builtin__
slice
p208
(I0
I38
I1
tp209
Rp210
sS'values'
p211
g93
sasstp212
bsb.