ccopy_reg
_reconstructor
p0
(cpandas.core.frame
DataFrame
p1
c__builtin__
object
p2
Ntp3
Rp4
(dp5
S'_metadata'
p6
(lp7
sS'_typ'
p8
S'dataframe'
p9
sS'_data'
p10
g0
(cpandas.core.internals
BlockManager
p11
g2
Ntp12
Rp13
((lp14
cpandas.core.indexes.base
_new_Index
p15
(cpandas.core.indexes.base
Index
p16
(dp17
S'data'
p18
cnumpy.core.multiarray
_reconstruct
p19
(cnumpy
ndarray
p20
(I0
tp21
S'b'
p22
tp23
Rp24
(I1
(I38
tp25
cnumpy
dtype
p26
(S'O8'
p27
I0
I1
tp28
Rp29
(I3
S'|'
p30
NNNI-1
I-1
I63
tp31
bI00
(lp32
S'year'
p33
aS'type'
p34
aS'procOriginal'
p35
aS'proc'
p36
aS'proc_s0'
p37
aS'cat'
p38
aS'inputWSFile'
p39
aS'nominalDataName'
p40
aS'modelWSFile'
p41
aS'model'
p42
aS'rate'
p43
aS'nominal_yield'
p44
aS'sumw2'
p45
aS'nominal_yield_COWCorr'
p46
aS'weight_electron_veto_sf_Diphoton_Photon_up_yield'
p47
aS'weight_electron_veto_sf_Diphoton_Photon_down_yield'
p48
aS'weight_electron_id_sf_SelectedElectron_up_yield'
p49
aS'weight_electron_id_sf_SelectedElectron_down_yield'
p50
aS'weight_muon_id_sfSTAT_SelectedMuon_up_yield'
p51
aS'weight_muon_id_sfSTAT_SelectedMuon_down_yield'
p52
aS'weight_muon_id_sfSYS_SelectedMuon_up_yield'
p53
aS'weight_muon_id_sfSYS_SelectedMuon_down_yield'
p54
aS'weight_trigger_sf_up_yield'
p55
aS'weight_trigger_sf_down_yield'
p56
aS'JER_up_yield'
p57
aS'JER_down_yield'
p58
aS'JES_up_yield'
p59
aS'JES_down_yield'
p60
aS'MET_JER_up_yield'
p61
aS'MET_JER_down_yield'
p62
aS'MET_JES_up_yield'
p63
aS'MET_JES_down_yield'
p64
aS'MET_Unclustered_up_yield'
p65
aS'MET_Unclustered_down_yield'
p66
aS'Muon_pt_up_yield'
p67
aS'Muon_pt_down_yield'
p68
aS'Tau_pt_up_yield'
p69
aS'Tau_pt_down_yield'
p70
atp71
bsS'name'
p72
Nstp73
Rp74
ag15
(cpandas.core.indexes.numeric
Int64Index
p75
(dp76
g18
g19
(g20
(I0
tp77
g22
tp78
Rp79
(I1
(I26
tp80
g26
(S'i8'
p81
I0
I1
tp82
Rp83
(I3
S'<'
p84
NNNI-1
I-1
I0
tp85
bI00
S'\x00\x00\x00\x00\x00\x00\x00\x00\x01\x00\x00\x00\x00\x00\x00\x00\x02\x00\x00\x00\x00\x00\x00\x00\x03\x00\x00\x00\x00\x00\x00\x00\x04\x00\x00\x00\x00\x00\x00\x00\x05\x00\x00\x00\x00\x00\x00\x00\x06\x00\x00\x00\x00\x00\x00\x00\x07\x00\x00\x00\x00\x00\x00\x00\x08\x00\x00\x00\x00\x00\x00\x00\t\x00\x00\x00\x00\x00\x00\x00\n\x00\x00\x00\x00\x00\x00\x00\x0b\x00\x00\x00\x00\x00\x00\x00\x0c\x00\x00\x00\x00\x00\x00\x00\r\x00\x00\x00\x00\x00\x00\x00\x0e\x00\x00\x00\x00\x00\x00\x00\x0f\x00\x00\x00\x00\x00\x00\x00\x10\x00\x00\x00\x00\x00\x00\x00\x11\x00\x00\x00\x00\x00\x00\x00\x12\x00\x00\x00\x00\x00\x00\x00\x13\x00\x00\x00\x00\x00\x00\x00\x14\x00\x00\x00\x00\x00\x00\x00\x15\x00\x00\x00\x00\x00\x00\x00\x16\x00\x00\x00\x00\x00\x00\x00\x17\x00\x00\x00\x00\x00\x00\x00\x18\x00\x00\x00\x00\x00\x00\x00\x19\x00\x00\x00\x00\x00\x00\x00'
p86
tp87
bsg72
Nstp88
Rp89
a(lp90
g19
(g20
(I0
tp91
g22
tp92
Rp93
(I1
(I38
I26
tp94
g29
I00
(lp95
S'2016'
p96
ag96
ag96
ag96
ag96
ag96
ag96
ag96
aS'2017'
p97
ag97
ag97
ag97
ag97
ag97
ag97
ag97
aS'2018'
p98
ag98
ag98
ag98
ag98
ag98
ag98
ag98
aS'merged'
p99
ag99
aS'sig'
p100
ag100
ag100
ag100
ag100
ag100
ag100
ag100
ag100
ag100
ag100
ag100
ag100
ag100
ag100
ag100
ag100
ag100
ag100
ag100
ag100
ag100
ag100
ag100
aS'bkg'
p101
ag18
aS'VBFH'
p102
aS'VH'
p103
aS'ggH'
p104
aS'ggHHkl0kt1'
p105
aS'ggHHkl1kt1'
p106
aS'ggHHkl2p45kt1'
p107
aS'ggHHkl5kt1'
p108
aS'ttH'
p109
ag102
ag103
ag104
ag105
ag106
ag107
ag108
ag109
ag102
ag103
ag104
ag105
ag106
ag107
ag108
ag109
aS'bkg_mass'
p110
aS'data_obs'
p111
aS'VBFH_2016_hgg'
p112
aS'VH_2016_hgg'
p113
aS'ggH_2016_hgg'
p114
aS'ggHHkl0kt1_2016_hgg'
p115
aS'ggHHkl1kt1_2016_hgg'
p116
aS'ggHHkl2p45kt1_2016_hgg'
p117
aS'ggHHkl5kt1_2016_hgg'
p118
aS'ttH_2016_hgg'
p119
aS'VBFH_2017_hgg'
p120
aS'VH_2017_hgg'
p121
aS'ggH_2017_hgg'
p122
aS'ggHHkl0kt1_2017_hgg'
p123
aS'ggHHkl1kt1_2017_hgg'
p124
aS'ggHHkl2p45kt1_2017_hgg'
p125
aS'ggHHkl5kt1_2017_hgg'
p126
aS'ttH_2017_hgg'
p127
aS'VBFH_2018_hgg'
p128
aS'VH_2018_hgg'
p129
aS'ggH_2018_hgg'
p130
aS'ggHHkl0kt1_2018_hgg'
p131
aS'ggHHkl1kt1_2018_hgg'
p132
aS'ggHHkl2p45kt1_2018_hgg'
p133
aS'ggHHkl5kt1_2018_hgg'
p134
aS'ttH_2018_hgg'
p135
ag110
ag111
ag102
ag103
ag104
ag105
ag106
ag107
ag108
ag109
ag102
ag103
ag104
ag105
ag106
ag107
ag108
ag109
ag102
ag103
ag104
ag105
ag106
ag107
ag108
ag109
aS'-'
p136
ag136
aS'SR1'
p137
ag137
ag137
ag137
ag137
ag137
ag137
ag137
ag137
ag137
ag137
ag137
ag137
ag137
ag137
ag137
ag137
ag137
ag137
ag137
ag137
ag137
ag137
ag137
ag137
ag137
aS'/home/users/fsetti/HHggTauTau/coupling_scan/CMSSW_10_2_13/src/flashggFinalFit/files_systs/07Apr2022//ws_signal_2016/output_VBFH_M125_13TeV_pythia8_VBFH.root'
p138
aS'/home/users/fsetti/HHggTauTau/coupling_scan/CMSSW_10_2_13/src/flashggFinalFit/files_systs/07Apr2022//ws_signal_2016/output_VH_M125_13TeV_pythia8_VH.root'
p139
aS'/home/users/fsetti/HHggTauTau/coupling_scan/CMSSW_10_2_13/src/flashggFinalFit/files_systs/07Apr2022//ws_signal_2016/output_ggH_M125_13TeV_pythia8_ggH.root'
p140
aS'/home/users/fsetti/HHggTauTau/coupling_scan/CMSSW_10_2_13/src/flashggFinalFit/files_systs/07Apr2022//ws_signal_2016/output_ggHHkl0kt1_M125_13TeV_pythia8_ggHHkl0kt1.root'
p141
aS'/home/users/fsetti/HHggTauTau/coupling_scan/CMSSW_10_2_13/src/flashggFinalFit/files_systs/07Apr2022//ws_signal_2016/output_ggHHkl1kt1_M125_13TeV_pythia8_ggHHkl1kt1.root'
p142
aS'/home/users/fsetti/HHggTauTau/coupling_scan/CMSSW_10_2_13/src/flashggFinalFit/files_systs/07Apr2022//ws_signal_2016/output_ggHHkl2p45kt1_M125_13TeV_pythia8_ggHHkl2p45kt1.root'
p143
aS'/home/users/fsetti/HHggTauTau/coupling_scan/CMSSW_10_2_13/src/flashggFinalFit/files_systs/07Apr2022//ws_signal_2016/output_ggHHkl5kt1_M125_13TeV_pythia8_ggHHkl5kt1.root'
p144
aS'/home/users/fsetti/HHggTauTau/coupling_scan/CMSSW_10_2_13/src/flashggFinalFit/files_systs/07Apr2022//ws_signal_2016/output_ttH_M125_13TeV_pythia8_ttH.root'
p145
aS'/home/users/fsetti/HHggTauTau/coupling_scan/CMSSW_10_2_13/src/flashggFinalFit/files_systs/07Apr2022//ws_signal_2017/output_VBFH_M125_13TeV_pythia8_VBFH.root'
p146
aS'/home/users/fsetti/HHggTauTau/coupling_scan/CMSSW_10_2_13/src/flashggFinalFit/files_systs/07Apr2022//ws_signal_2017/output_VH_M125_13TeV_pythia8_VH.root'
p147
aS'/home/users/fsetti/HHggTauTau/coupling_scan/CMSSW_10_2_13/src/flashggFinalFit/files_systs/07Apr2022//ws_signal_2017/output_ggH_M125_13TeV_pythia8_ggH.root'
p148
aS'/home/users/fsetti/HHggTauTau/coupling_scan/CMSSW_10_2_13/src/flashggFinalFit/files_systs/07Apr2022//ws_signal_2017/output_ggHHkl0kt1_M125_13TeV_pythia8_ggHHkl0kt1.root'
p149
aS'/home/users/fsetti/HHggTauTau/coupling_scan/CMSSW_10_2_13/src/flashggFinalFit/files_systs/07Apr2022//ws_signal_2017/output_ggHHkl1kt1_M125_13TeV_pythia8_ggHHkl1kt1.root'
p150
aS'/home/users/fsetti/HHggTauTau/coupling_scan/CMSSW_10_2_13/src/flashggFinalFit/files_systs/07Apr2022//ws_signal_2017/output_ggHHkl2p45kt1_M125_13TeV_pythia8_ggHHkl2p45kt1.root'
p151
aS'/home/users/fsetti/HHggTauTau/coupling_scan/CMSSW_10_2_13/src/flashggFinalFit/files_systs/07Apr2022//ws_signal_2017/output_ggHHkl5kt1_M125_13TeV_pythia8_ggHHkl5kt1.root'
p152
aS'/home/users/fsetti/HHggTauTau/coupling_scan/CMSSW_10_2_13/src/flashggFinalFit/files_systs/07Apr2022//ws_signal_2017/output_ttH_M125_13TeV_pythia8_ttH.root'
p153
aS'/home/users/fsetti/HHggTauTau/coupling_scan/CMSSW_10_2_13/src/flashggFinalFit/files_systs/07Apr2022//ws_signal_2018/output_VBFH_M125_13TeV_pythia8_VBFH.root'
p154
aS'/home/users/fsetti/HHggTauTau/coupling_scan/CMSSW_10_2_13/src/flashggFinalFit/files_systs/07Apr2022//ws_signal_2018/output_VH_M125_13TeV_pythia8_VH.root'
p155
aS'/home/users/fsetti/HHggTauTau/coupling_scan/CMSSW_10_2_13/src/flashggFinalFit/files_systs/07Apr2022//ws_signal_2018/output_ggH_M125_13TeV_pythia8_ggH.root'
p156
aS'/home/users/fsetti/HHggTauTau/coupling_scan/CMSSW_10_2_13/src/flashggFinalFit/files_systs/07Apr2022//ws_signal_2018/output_ggHHkl0kt1_M125_13TeV_pythia8_ggHHkl0kt1.root'
p157
aS'/home/users/fsetti/HHggTauTau/coupling_scan/CMSSW_10_2_13/src/flashggFinalFit/files_systs/07Apr2022//ws_signal_2018/output_ggHHkl1kt1_M125_13TeV_pythia8_ggHHkl1kt1.root'
p158
aS'/home/users/fsetti/HHggTauTau/coupling_scan/CMSSW_10_2_13/src/flashggFinalFit/files_systs/07Apr2022//ws_signal_2018/output_ggHHkl2p45kt1_M125_13TeV_pythia8_ggHHkl2p45kt1.root'
p159
aS'/home/users/fsetti/HHggTauTau/coupling_scan/CMSSW_10_2_13/src/flashggFinalFit/files_systs/07Apr2022//ws_signal_2018/output_ggHHkl5kt1_M125_13TeV_pythia8_ggHHkl5kt1.root'
p160
aS'/home/users/fsetti/HHggTauTau/coupling_scan/CMSSW_10_2_13/src/flashggFinalFit/files_systs/07Apr2022//ws_signal_2018/output_ttH_M125_13TeV_pythia8_ttH.root'
p161
ag136
ag136
aS'VBFH_125_13TeV_SR1'
p162
aS'VH_125_13TeV_SR1'
p163
aS'ggH_125_13TeV_SR1'
p164
aS'ggHHkl0kt1_125_13TeV_SR1'
p165
aS'ggHHkl1kt1_125_13TeV_SR1'
p166
aS'ggHHkl2p45kt1_125_13TeV_SR1'
p167
aS'ggHHkl5kt1_125_13TeV_SR1'
p168
aS'ttH_125_13TeV_SR1'
p169
aS'VBFH_125_13TeV_SR1'
p170
aS'VH_125_13TeV_SR1'
p171
aS'ggH_125_13TeV_SR1'
p172
aS'ggHHkl0kt1_125_13TeV_SR1'
p173
aS'ggHHkl1kt1_125_13TeV_SR1'
p174
aS'ggHHkl2p45kt1_125_13TeV_SR1'
p175
aS'ggHHkl5kt1_125_13TeV_SR1'
p176
aS'ttH_125_13TeV_SR1'
p177
aS'VBFH_125_13TeV_SR1'
p178
aS'VH_125_13TeV_SR1'
p179
aS'ggH_125_13TeV_SR1'
p180
aS'ggHHkl0kt1_125_13TeV_SR1'
p181
aS'ggHHkl1kt1_125_13TeV_SR1'
p182
aS'ggHHkl2p45kt1_125_13TeV_SR1'
p183
aS'ggHHkl5kt1_125_13TeV_SR1'
p184
aS'ttH_125_13TeV_SR1'
p185
ag136
ag136
aS'./Models/signal/CMS-HGG_sigfit_packaged_SR1.root'
p186
aS'./Models/signal/CMS-HGG_sigfit_packaged_SR1.root'
p187
aS'./Models/signal/CMS-HGG_sigfit_packaged_SR1.root'
p188
aS'./Models/signal/CMS-HGG_sigfit_packaged_SR1.root'
p189
aS'./Models/signal/CMS-HGG_sigfit_packaged_SR1.root'
p190
aS'./Models/signal/CMS-HGG_sigfit_packaged_SR1.root'
p191
aS'./Models/signal/CMS-HGG_sigfit_packaged_SR1.root'
p192
aS'./Models/signal/CMS-HGG_sigfit_packaged_SR1.root'
p193
aS'./Models/signal/CMS-HGG_sigfit_packaged_SR1.root'
p194
aS'./Models/signal/CMS-HGG_sigfit_packaged_SR1.root'
p195
aS'./Models/signal/CMS-HGG_sigfit_packaged_SR1.root'
p196
aS'./Models/signal/CMS-HGG_sigfit_packaged_SR1.root'
p197
aS'./Models/signal/CMS-HGG_sigfit_packaged_SR1.root'
p198
aS'./Models/signal/CMS-HGG_sigfit_packaged_SR1.root'
p199
aS'./Models/signal/CMS-HGG_sigfit_packaged_SR1.root'
p200
aS'./Models/signal/CMS-HGG_sigfit_packaged_SR1.root'
p201
aS'./Models/signal/CMS-HGG_sigfit_packaged_SR1.root'
p202
aS'./Models/signal/CMS-HGG_sigfit_packaged_SR1.root'
p203
aS'./Models/signal/CMS-HGG_sigfit_packaged_SR1.root'
p204
aS'./Models/signal/CMS-HGG_sigfit_packaged_SR1.root'
p205
aS'./Models/signal/CMS-HGG_sigfit_packaged_SR1.root'
p206
aS'./Models/signal/CMS-HGG_sigfit_packaged_SR1.root'
p207
aS'./Models/signal/CMS-HGG_sigfit_packaged_SR1.root'
p208
aS'./Models/signal/CMS-HGG_sigfit_packaged_SR1.root'
p209
aS'./Models/background/CMS-HGG_multipdf_SR1.root'
p210
ag210
aS'wsig_13TeV:hggpdfsmrel_VBFH_2016_SR1_13TeV'
p211
aS'wsig_13TeV:hggpdfsmrel_VH_2016_SR1_13TeV'
p212
aS'wsig_13TeV:hggpdfsmrel_ggH_2016_SR1_13TeV'
p213
aS'wsig_13TeV:hggpdfsmrel_ggHHkl0kt1_2016_SR1_13TeV'
p214
aS'wsig_13TeV:hggpdfsmrel_ggHHkl1kt1_2016_SR1_13TeV'
p215
aS'wsig_13TeV:hggpdfsmrel_ggHHkl2p45kt1_2016_SR1_13TeV'
p216
aS'wsig_13TeV:hggpdfsmrel_ggHHkl5kt1_2016_SR1_13TeV'
p217
aS'wsig_13TeV:hggpdfsmrel_ttH_2016_SR1_13TeV'
p218
aS'wsig_13TeV:hggpdfsmrel_VBFH_2017_SR1_13TeV'
p219
aS'wsig_13TeV:hggpdfsmrel_VH_2017_SR1_13TeV'
p220
aS'wsig_13TeV:hggpdfsmrel_ggH_2017_SR1_13TeV'
p221
aS'wsig_13TeV:hggpdfsmrel_ggHHkl0kt1_2017_SR1_13TeV'
p222
aS'wsig_13TeV:hggpdfsmrel_ggHHkl1kt1_2017_SR1_13TeV'
p223
aS'wsig_13TeV:hggpdfsmrel_ggHHkl2p45kt1_2017_SR1_13TeV'
p224
aS'wsig_13TeV:hggpdfsmrel_ggHHkl5kt1_2017_SR1_13TeV'
p225
aS'wsig_13TeV:hggpdfsmrel_ttH_2017_SR1_13TeV'
p226
aS'wsig_13TeV:hggpdfsmrel_VBFH_2018_SR1_13TeV'
p227
aS'wsig_13TeV:hggpdfsmrel_VH_2018_SR1_13TeV'
p228
aS'wsig_13TeV:hggpdfsmrel_ggH_2018_SR1_13TeV'
p229
aS'wsig_13TeV:hggpdfsmrel_ggHHkl0kt1_2018_SR1_13TeV'
p230
aS'wsig_13TeV:hggpdfsmrel_ggHHkl1kt1_2018_SR1_13TeV'
p231
aS'wsig_13TeV:hggpdfsmrel_ggHHkl2p45kt1_2018_SR1_13TeV'
p232
aS'wsig_13TeV:hggpdfsmrel_ggHHkl5kt1_2018_SR1_13TeV'
p233
aS'wsig_13TeV:hggpdfsmrel_ttH_2018_SR1_13TeV'
p234
aS'multipdf:CMS_hgg_SR1_13TeV_bkgshape'
p235
aS'multipdf:roohist_data_mass_SR1'
p236
aI1000
aI1000
aI1000
aI1000
aI1000
aI1000
aI1000
aI1000
aI1000
aI1000
aI1000
aI1000
aI1000
aI1000
aI1000
aI1000
aI1000
aI1000
aI1000
aI1000
aI1000
aI1000
aI1000
aI1000
aF1.0
aI-1
aF0.008673619058150188
aF0.25692169275359356
aF0.020775708380597984
aF0.11312062613256546
aF0.06413499179896184
aF0.02478953157487792
aF0.04539440512176173
aF0.05807235691003623
aF0.010083174182210716
aF0.32427153855039026
aF0.000975449050788074
aF0.2691374917101908
aF0.07631941413717121
aF0.02841601409441191
aF0.053872149507455884
aF0.05457586703646481
aF0.010119524326577188
aF0.4546704593784177
aF0.006552064268465043
aF0.18859817559285955
aF0.10465861298006765
aF0.16207329883751068
aF0.07738215829142205
aF0.09527308406460824
ag136
ag136
aF5.306334329129123e-06
aF0.00014903782085226553
aF4.5044012958528765e-05
aF2.2366025805307894e-07
aF6.419923685146944e-08
aF4.457161027769182e-07
aF1.1172141823375521e-07
aF2.351814608058144e-05
aF1.205689518797327e-05
aF0.00019529497598485258
aF2.3177234976108e-05
aF0.02205811174410254
aF8.220138398435001e-08
aF1.9474383567534932e-07
aF1.4469345391207715e-07
aF2.6904992657734286e-05
aF1.7946125914457443e-05
aF0.0004094649977407913
aF0.0002220801742808912
aF5.829471821029938e-07
aF1.8907468189215884e-07
aF0.014764868068444167
aF2.9394170691487144e-07
aF5.7124926083869405e-05
ag136
ag136
aF0.008673619058150188
aF0.25692169275359356
aF0.020775708380597984
aF0.11312062613256546
aF0.06413499179896184
aF0.02478953157487792
aF0.04539440512176173
aF0.05807235691003623
aF0.010083174182210716
aF0.32427153855039026
aF0.000975449050788074
aF0.2691374917101908
aF0.07631941413717121
aF0.02841601409441191
aF0.053872149507455884
aF0.05457586703646481
aF0.010119524326577188
aF0.4546704593784177
aF0.006552064268465043
aF0.18859817559285955
aF0.10465861298006765
aF0.16207329883751068
aF0.07738215829142205
aF0.09527308406460824
ag136
ag136
aF0.008631194708564131
aF0.25509848508166105
aF0.020604482970481175
aF0.11233651039782416
aF0.06368989805389745
aF0.024617671300814683
aF0.04508366999935518
aF0.05767923960398215
aF0.009903594847609217
aF0.3181820141642991
aF0.0009544843466541305
aF0.2645901838308119
aF0.07490599066990804
aF0.027893156504362936
aF0.052879662582682084
aF0.05360416591475356
aF0.009960715559731041
aF0.4467389909953215
aF0.006518154499911138
aF0.18536009900290967
aF0.10286409828744147
aF0.15824636411739884
aF0.07605285285471439
aF0.09367476903275189
ag136
ag136
aF0.008612757537013689
aF0.25413611253938
aF0.02053059350001194
aF0.11191732357897577
aF0.06345408583879039
aF0.02453013762521582
aF0.04491510177666228
aF0.05747045273844037
aF0.009870470252807158
aF0.3164447007826868
aF0.0009481156074321834
aF0.2634337520471863
aF0.07451292094950969
aF0.027749721583661614
aF0.052605173678902536
aF0.053323927913491706
aF0.009934980224920101
aF0.44530399030285917
aF0.006520443677209142
aF0.18476655842770423
aF0.10253642030149739
aF0.15757487838322726
aF0.07580847227023145
aF0.09339467436950837
ag136
ag136
aF0.00866203468721313
aF0.2566519722876953
aF0.020775708380597984
aF0.11269758184943669
aF0.06390670751057499
aF0.02470352804500148
aF0.045207788755802523
aF0.057811591762521805
aF0.010093144358274199
aF0.32343720866163694
aF0.0009728251161164898
aF0.26839298879823054
aF0.07586614089043194
aF0.028253172299512738
aF0.05354201798886782
aF0.05415724681395175
aF0.010119524326577188
aF0.45364252656315535
aF0.006552064268465043
aF0.18731202801816416
aF0.10399757716369541
aF0.16181030582583542
aF0.07680451153438324
aF0.09439823068906973
ag136
ag136
aF0.008687469325189908
aF0.25578432507658494
aF0.020775708380597984
aF0.11182583385276859
aF0.06343645519741381
aF0.02453329097806942
aF0.044821676350911534
aF0.057123477228491426
aF0.010123768420445583
aF0.3226511891193853
aF0.0010999638205639022
aF0.2675652843778831
aF0.07537161801057002
aF0.028073723663814328
aF0.05317098941434346
aF0.053637905333534845
aF0.010119524326577188
aF0.4524577747672737
aF0.006552064268465043
aF0.18588216680356184
aF0.10325137371736147
aF0.16150213875384578
aF0.0761571626299538
aF0.0936399064610691
ag136
ag136
aF0.008673506476719708
aF0.2567832102375131
aF0.020762139750860397
aF0.11302754720937057
aF0.064085109144816
aF0.024771282551295383
aF0.04534943448378082
aF0.05799759410046767
aF0.010083052726215536
aF0.32445903994465347
aF0.000975449050788074
aF0.2692721589307776
aF0.0764019545478943
aF0.02844618137976329
aF0.053937276659549956
aF0.054701729732330305
aF0.010121502885798415
aF0.4544952635318914
aF0.006567031900063006
aF0.18826917106511273
aF0.10449050175987219
aF0.1620015821005084
aF0.07722879266433492
aF0.0951179172202312
ag136
ag136
aF0.008673758519547551
aF0.25670551818083354
aF0.020754679994076305
aF0.11292286539312243
aF0.06402804038680968
aF0.02475109202764182
aF0.04530167442413931
aF0.057954350127006934
aF0.01008332463706578
aF0.3243506337015393
aF0.000975449050788074
aF0.2691637119846484
aF0.07633704259018854
aF0.028422915009568582
aF0.05388592595212168
aF0.054635451096978205
aF0.010119563834929053
aF0.4544173051042203
aF0.006552363145774053
aF0.18814297913949224
aF0.10442479639552404
aF0.16197753881618293
aF0.07717046826928552
aF0.0950333521871726
ag136
ag136
aF0.008673547045913662
aF0.25695418325099395
aF0.020777471766605177
aF0.11321112931054007
aF0.06418455842812987
aF0.024805970808515373
aF0.045435660555770155
aF0.05807989466130586
aF0.01008309649339636
aF0.3246349131024642
aF0.000975449050788074
aF0.2694548659114608
aF0.07651045946565874
aF0.028485257952491908
aF0.054026870399183725
aF0.05481181258245939
aF0.010124606243037196
aF0.45467271063823184
aF0.006590508532639176
aF0.18859996805862178
aF0.10466201154000802
aF0.16206058322681727
aF0.07738369072577675
aF0.09532500167246372
ag136
ag136
aF0.008673717950353597
aF0.2565345520275804
aF0.020739356196508657
aF0.11273939029214977
aF0.06392865382609904
aF0.024716425505899687
aF0.045215498566162415
aF0.05787215337852372
aF0.010083280869884954
aF0.3241748652173428
aF0.000975449050788074
aF0.2689811110921708
aF0.07622859828791671
aF0.0283838591038388
aF0.05379637704239246
aF0.05452547965636691
aF0.010116460525290699
aF0.4542397981807197
aF0.006528886873291029
aF0.18781235408392208
aF0.10425337501820789
aF0.1619185816903228
aF0.0770156528535914
aF0.09482661310431996
ag136
ag136
aF0.008617312835168776
aF0.25457065543173724
aF0.020659978993073605
aF0.11210777956219754
aF0.06356392283735826
aF0.024583575736984303
aF0.04497631760897843
aF0.057691711650614444
aF0.009964380435508156
aF0.32035319840855364
aF0.0009631888548859804
aF0.26641514422886114
aF0.07537550666816414
aF0.028077068058511696
aF0.05317523508591004
aF0.05394381292266871
aF0.010026740829103997
aF0.45034703003621757
aF0.00650888090646868
aF0.18667540642923636
aF0.10360828728029514
aF0.16127395625413704
aF0.07655799598220367
aF0.09441680480471586
ag136
ag136
aF0.008583658274671876
aF0.25344960353389717
aF0.02057719057505468
aF0.11163294223299594
aF0.06329583809640107
aF0.024480405886478915
aF0.044785345376923066
aF0.05746561951155536
aF0.00991685904334666
aF0.3186872060255195
aF0.0009589676717823644
aF0.26520075013675326
aF0.07500112716247008
aF0.027938263132711263
aF0.052913229486981045
aF0.053677792582435324
aF0.009983509157880733
aF0.4483322181021743
aF0.006484047718915751
aF0.18585069150846806
aF0.10315152596734782
aF0.16038775517978904
aF0.07621730703433732
aF0.09401202111865813
ag136
ag136
aF0.008673619058150188
aF0.2569216927535934
aF0.02077570838059798
aF0.11313485908311732
aF0.06412942654117708
aF0.024789428034248606
aF0.045389197929535406
aF0.05780456387438304
aF0.010083174182210716
aF0.32463818568417724
aF0.000975449050788074
aF0.2691588183683553
aF0.07634577421025346
aF0.028425226278061187
aF0.05388085503683487
aF0.05440852175195544
aF0.010754793110848307
aF0.4541744817930778
aF0.006552064268465042
aF0.18856720335099014
aF0.10464380754026363
aF0.1620711060771943
aF0.07736900243404397
aF0.0947714167122013
ag136
ag136
aF0.008673619058150188
aF0.25622884067039847
aF0.02077570838059798
aF0.113140859774223
aF0.06414778140193524
aF0.024790077212545506
aF0.045393370579441664
aF0.05781553233584421
aF0.010083174182210716
aF0.3238605079936095
aF0.000975449050788074
aF0.26910040128140306
aF0.07631157029338
aF0.02841321602217708
aF0.05385258276126898
aF0.05442068342888973
aF0.010119524326577188
aF0.45516787483738447
aF0.006552064268465042
aF0.1886020356783185
aF0.10465925755258568
aF0.16207557299869432
aF0.0773791060394929
aF0.09552377601499172
ag136
ag136
aF0.008673619058150188
aF0.25628059824327304
aF0.02077570838059798
aF0.11299983969973493
aF0.06406855655065061
aF0.02476796539665396
aF0.04528392019383412
aF0.05777774447616086
aF0.010083174182210716
aF0.32427153855039065
aF0.000975449050788074
aF0.2690440900671337
aF0.0762599213050782
aF0.028392223926549255
aF0.053798001290396254
aF0.05440352159045718
aF0.010119524326577188
aF0.454115948913744
aF0.006552064268465042
aF0.18832648060982565
aF0.1044937677620505
aF0.1620318135858413
aF0.07721309262306006
aF0.09402311039801704
ag136
ag136
aF0.008673619058150188
aF0.25697428596436656
aF0.02077570838059798
aF0.11327347240579501
aF0.06420543267321299
aF0.024811462788610125
aF0.04545269221986866
aF0.05821626751336069
aF0.010083174182210716
aF0.3238959570051037
aF0.000975449050788074
aF0.2692497589592845
aF0.07640190260325536
aF0.028440180978267164
aF0.053931948622997355
aF0.054093770831461475
aF0.010754793110848307
aF0.45513338088366095
aF0.006552064268465042
aF0.1888904909099291
aF0.10483528914541791
aF0.1621151891456272
aF0.07749309418108732
aF0.0946334719478376
ag136
ag136
aF0.009387885775821078
aF0.2568130456229796
aF0.02077570838059798
aF0.1131232315390227
aF0.06410977802769201
aF0.02480156815522581
aF0.04541360539674853
aF0.058925909395986686
aF0.010891122146835484
aF0.32424910489049086
aF0.000975449050788074
aF0.26918671103054526
aF0.07634038169054701
aF0.02838807252783442
aF0.053964348239525714
aF0.05428544931116509
aF0.009071824481312243
aF0.4602867587143176
aF0.006552064268465042
aF0.18866021225321275
aF0.1047113826345786
aF0.1620741700642204
aF0.07739027155389444
aF0.09531494534261396
ag136
ag136
aF0.010098276494173603
aF0.2561359647448679
aF0.02077570838059798
aF0.1131584365333426
aF0.06412768139515976
aF0.024791846882827793
aF0.04544544788721672
aF0.05978243936001293
aF0.01125099100194742
aF0.3239809869434512
aF0.0006129912070834062
aF0.2690736052173454
aF0.07623580463374774
aF0.02840024694275009
aF0.05379903262173192
aF0.054951626765563186
aF0.010080881333556299
aF0.4567132808336323
aF0.0007429156482104795
aF0.18852613963564405
aF0.1046476400652704
aF0.16231952751648385
aF0.0772587878585077
aF0.09641417948811097
ag136
ag136
aF0.00877881177058402
aF0.2580231690137116
aF0.02077570838059798
aF0.1128828994809289
aF0.06394406205970309
aF0.024756496069214443
aF0.04536179049715438
aF0.05837936873313915
aF0.009758272614152066
aF0.3202869490173411
aF0.000975449050788074
aF0.2688615561395594
aF0.07616362722899374
aF0.02840446161874645
aF0.05377950481543272
aF0.05448250153428094
aF0.010672017100534148
aF0.45259567546855983
aF0.006552064268465042
aF0.18816223849580768
aF0.10442484532671507
aF0.16200548160108705
aF0.07719793706473804
aF0.0959227706770436
ag136
ag136
aF0.009131921179554183
aF0.2594905989628281
aF0.02445485229022066
aF0.11347258745366116
aF0.0643131397178542
aF0.024831323129414624
aF0.04554261482538006
aF0.05904600845636939
aF0.010705742796060987
aF0.3249970808392564
aF0.0050543885492482475
aF0.26930241111121417
aF0.07647854697350301
aF0.0284662215563328
aF0.05401381869334496
aF0.05436811722614617
aF0.010080881333556299
aF0.46220755279911807
aF0.006552064268465042
aF0.1891207655896332
aF0.10493633799645717
aF0.16226252604838637
aF0.07753178858657218
aF0.0939463103502114
ag136
ag136
aF0.007364107766043306
aF0.25365020438814556
aF0.02807951670436883
aF0.11341511046350686
aF0.06432014945648357
aF0.024831521748212838
aF0.045624002860557546
aF0.05929574561770074
aF0.00871234548648771
aF0.32334330904730946
aF0.007956381647860276
aF0.2693713927115386
aF0.07646485815991146
aF0.02839176028048228
aF0.05410265570709818
aF0.052584958236678116
aF0.009260859337523249
aF0.4605684317508866
aF0.0007429156482104795
aF0.18919689414471227
aF0.10494217475216358
aF0.1623673321854948
aF0.07768928331470755
aF0.09556422281221148
ag136
ag136
aF0.009348629939696127
aF0.2558743635619092
aF0.02065125127363182
aF0.11294753702573167
aF0.06395137464438566
aF0.024669221131182067
aF0.04525309553377384
aF0.058128397078078035
aF0.010402927474563931
aF0.32217126830829435
aF0.000975449050788074
aF0.2688353959068231
aF0.07621704420064274
aF0.028492187236087662
aF0.05370707440667686
aF0.05439499452325055
aF0.01092836828831958
aF0.45332305682010937
aF0.006552064268465042
aF0.1880728260885794
aF0.10451516714212829
aF0.16206568733946056
aF0.0770834373944038
aF0.09221992421082985
ag136
ag136
aF0.008673619058150188
aF0.25743166930845157
aF0.02077570838059798
aF0.11312511590088842
aF0.06413422681765293
aF0.024790013281310606
aF0.0453953844630923
aF0.058072356910036205
aF0.010083174182210716
aF0.32427153855039065
aF0.000975449050788074
aF0.26914174095323035
aF0.07632172013518793
aF0.028416849892955103
aF0.05386930972386056
aF0.05457586703646485
aF0.010119524326577188
aF0.4541533090052534
aF0.006552064268465042
aF0.1886077839124786
aF0.10465760599224333
aF0.16207288511434037
aF0.07738229628348768
aF0.09527308406460813
ag136
ag136
aF0.008673619058150188
aF0.2569216927535934
aF0.02077570838059798
aF0.11311782349131065
aF0.06413852482529216
aF0.024789257077088934
aF0.045393237504316925
aF0.058072356910036205
aF0.010083174182210716
aF0.32427153855039065
aF0.000975449050788074
aF0.26913864158826056
aF0.0763179503694993
aF0.028415927209914836
aF0.05387214950745631
aF0.05474265984606052
aF0.010119524326577188
aF0.45417089102430996
aF0.006552064268465042
aF0.1885993627130204
aF0.1046570522340069
aF0.16207403203088355
aF0.07737930882784547
aF0.09549385881538622
ag136
ag136
aF0.008673619058150188
aF0.2563119315965459
aF0.02077570838059798
aF0.11321580833788435
aF0.0641754570412217
aF0.024803120379834197
aF0.04544105937011933
aF0.05780028079282487
aF0.010083174182210716
aF0.3240851655039396
aF0.000975449050788074
aF0.2692255022448949
aF0.07637646875546332
aF0.02843071776761074
aF0.053952512282239046
aF0.05474923388577453
aF0.010119524326577188
aF0.45573387678412697
aF0.006552064268465042
aF0.18866833474620376
aF0.10468478078856631
aF0.16210344609317295
aF0.07744215284401204
aF0.09527308406460813
ag136
ag136
aF0.008673619058150188
aF0.25497754964922
aF0.02077570838059798
aF0.11298993191578634
aF0.06405770673853466
aF0.024782330211154266
aF0.045313574651745826
aF0.05777832734080717
aF0.010083174182210716
aF0.32466610607116725
aF0.000975449050788074
aF0.2689662064338331
aF0.07620819592752898
aF0.028387781346204115
aF0.053763466619784726
aF0.05468174655075808
aF0.010119524326577188
aF0.4546908425778699
aF0.006552064268465042
aF0.18846120514740267
aF0.10459915432006194
aF0.16206354413775756
aF0.07732502887436885
aF0.09524401266110746
ag136
ag136
atp237
ba(lp238
g15
(g16
(dp239
g18
g19
(g20
(I0
tp240
g22
tp241
Rp242
(I1
(I38
tp243
g29
I00
(lp244
g33
ag34
ag35
ag36
ag37
ag38
ag39
ag40
ag41
ag42
ag43
ag44
ag45
ag46
ag47
ag48
ag49
ag50
ag51
ag52
ag53
ag54
ag55
ag56
ag57
ag58
ag59
ag60
ag61
ag62
ag63
ag64
ag65
ag66
ag67
ag68
ag69
ag70
atp245
bsg72
Nstp246
Rp247
a(dp248
S'0.14.1'
p249
(dp250
S'axes'
p251
g14
sS'blocks'
p252
(lp253
(dp254
S'mgr_locs'
p255
c__builtin__
slice
p256
(I0
I38
I1
tp257
Rp258
sS'values'
p259
g93
sasstp260
bsb.