ccopy_reg
_reconstructor
p0
(cpandas.core.frame
DataFrame
p1
c__builtin__
object
p2
Ntp3
Rp4
(dp5
S'_metadata'
p6
(lp7
sS'_typ'
p8
S'dataframe'
p9
sS'_data'
p10
g0
(cpandas.core.internals
BlockManager
p11
g2
Ntp12
Rp13
((lp14
cpandas.core.indexes.base
_new_Index
p15
(cpandas.core.indexes.base
Index
p16
(dp17
S'data'
p18
cnumpy.core.multiarray
_reconstruct
p19
(cnumpy
ndarray
p20
(I0
tp21
S'b'
p22
tp23
Rp24
(I1
(I38
tp25
cnumpy
dtype
p26
(S'O8'
p27
I0
I1
tp28
Rp29
(I3
S'|'
p30
NNNI-1
I-1
I63
tp31
bI00
(lp32
S'year'
p33
aS'type'
p34
aS'procOriginal'
p35
aS'proc'
p36
aS'proc_s0'
p37
aS'cat'
p38
aS'inputWSFile'
p39
aS'nominalDataName'
p40
aS'modelWSFile'
p41
aS'model'
p42
aS'rate'
p43
aS'nominal_yield'
p44
aS'sumw2'
p45
aS'nominal_yield_COWCorr'
p46
aS'weight_electron_veto_sf_Diphoton_Photon_up_yield'
p47
aS'weight_electron_veto_sf_Diphoton_Photon_down_yield'
p48
aS'weight_electron_id_sf_SelectedElectron_up_yield'
p49
aS'weight_electron_id_sf_SelectedElectron_down_yield'
p50
aS'weight_muon_id_sfSTAT_SelectedMuon_up_yield'
p51
aS'weight_muon_id_sfSTAT_SelectedMuon_down_yield'
p52
aS'weight_muon_id_sfSYS_SelectedMuon_up_yield'
p53
aS'weight_muon_id_sfSYS_SelectedMuon_down_yield'
p54
aS'weight_trigger_sf_up_yield'
p55
aS'weight_trigger_sf_down_yield'
p56
aS'JER_up_yield'
p57
aS'JER_down_yield'
p58
aS'JES_up_yield'
p59
aS'JES_down_yield'
p60
aS'MET_JER_up_yield'
p61
aS'MET_JER_down_yield'
p62
aS'MET_JES_up_yield'
p63
aS'MET_JES_down_yield'
p64
aS'MET_Unclustered_up_yield'
p65
aS'MET_Unclustered_down_yield'
p66
aS'Muon_pt_up_yield'
p67
aS'Muon_pt_down_yield'
p68
aS'Tau_pt_up_yield'
p69
aS'Tau_pt_down_yield'
p70
atp71
bsS'name'
p72
Nstp73
Rp74
ag15
(cpandas.core.indexes.numeric
Int64Index
p75
(dp76
g18
g19
(g20
(I0
tp77
g22
tp78
Rp79
(I1
(I26
tp80
g26
(S'i8'
p81
I0
I1
tp82
Rp83
(I3
S'<'
p84
NNNI-1
I-1
I0
tp85
bI00
S'\x00\x00\x00\x00\x00\x00\x00\x00\x01\x00\x00\x00\x00\x00\x00\x00\x02\x00\x00\x00\x00\x00\x00\x00\x03\x00\x00\x00\x00\x00\x00\x00\x04\x00\x00\x00\x00\x00\x00\x00\x05\x00\x00\x00\x00\x00\x00\x00\x06\x00\x00\x00\x00\x00\x00\x00\x07\x00\x00\x00\x00\x00\x00\x00\x08\x00\x00\x00\x00\x00\x00\x00\t\x00\x00\x00\x00\x00\x00\x00\n\x00\x00\x00\x00\x00\x00\x00\x0b\x00\x00\x00\x00\x00\x00\x00\x0c\x00\x00\x00\x00\x00\x00\x00\r\x00\x00\x00\x00\x00\x00\x00\x0e\x00\x00\x00\x00\x00\x00\x00\x0f\x00\x00\x00\x00\x00\x00\x00\x10\x00\x00\x00\x00\x00\x00\x00\x11\x00\x00\x00\x00\x00\x00\x00\x12\x00\x00\x00\x00\x00\x00\x00\x13\x00\x00\x00\x00\x00\x00\x00\x14\x00\x00\x00\x00\x00\x00\x00\x15\x00\x00\x00\x00\x00\x00\x00\x16\x00\x00\x00\x00\x00\x00\x00\x17\x00\x00\x00\x00\x00\x00\x00\x18\x00\x00\x00\x00\x00\x00\x00\x19\x00\x00\x00\x00\x00\x00\x00'
p86
tp87
bsg72
Nstp88
Rp89
a(lp90
g19
(g20
(I0
tp91
g22
tp92
Rp93
(I1
(I38
I26
tp94
g29
I00
(lp95
S'2016'
p96
ag96
ag96
ag96
ag96
ag96
ag96
ag96
aS'2017'
p97
ag97
ag97
ag97
ag97
ag97
ag97
ag97
aS'2018'
p98
ag98
ag98
ag98
ag98
ag98
ag98
ag98
aS'merged'
p99
ag99
aS'sig'
p100
ag100
ag100
ag100
ag100
ag100
ag100
ag100
ag100
ag100
ag100
ag100
ag100
ag100
ag100
ag100
ag100
ag100
ag100
ag100
ag100
ag100
ag100
ag100
aS'bkg'
p101
ag18
aS'VBFH'
p102
aS'VH'
p103
aS'ggH'
p104
aS'ggHHkl0kt1'
p105
aS'ggHHkl1kt1'
p106
aS'ggHHkl2p45kt1'
p107
aS'ggHHkl5kt1'
p108
aS'ttH'
p109
ag102
ag103
ag104
ag105
ag106
ag107
ag108
ag109
ag102
ag103
ag104
ag105
ag106
ag107
ag108
ag109
aS'bkg_mass'
p110
aS'data_obs'
p111
aS'VBFH_2016_hgg'
p112
aS'VH_2016_hgg'
p113
aS'ggH_2016_hgg'
p114
aS'ggHHkl0kt1_2016_hgg'
p115
aS'ggHHkl1kt1_2016_hgg'
p116
aS'ggHHkl2p45kt1_2016_hgg'
p117
aS'ggHHkl5kt1_2016_hgg'
p118
aS'ttH_2016_hgg'
p119
aS'VBFH_2017_hgg'
p120
aS'VH_2017_hgg'
p121
aS'ggH_2017_hgg'
p122
aS'ggHHkl0kt1_2017_hgg'
p123
aS'ggHHkl1kt1_2017_hgg'
p124
aS'ggHHkl2p45kt1_2017_hgg'
p125
aS'ggHHkl5kt1_2017_hgg'
p126
aS'ttH_2017_hgg'
p127
aS'VBFH_2018_hgg'
p128
aS'VH_2018_hgg'
p129
aS'ggH_2018_hgg'
p130
aS'ggHHkl0kt1_2018_hgg'
p131
aS'ggHHkl1kt1_2018_hgg'
p132
aS'ggHHkl2p45kt1_2018_hgg'
p133
aS'ggHHkl5kt1_2018_hgg'
p134
aS'ttH_2018_hgg'
p135
ag110
ag111
ag102
ag103
ag104
ag105
ag106
ag107
ag108
ag109
ag102
ag103
ag104
ag105
ag106
ag107
ag108
ag109
ag102
ag103
ag104
ag105
ag106
ag107
ag108
ag109
aS'-'
p136
ag136
aS'SR2'
p137
ag137
ag137
ag137
ag137
ag137
ag137
ag137
ag137
ag137
ag137
ag137
ag137
ag137
ag137
ag137
ag137
ag137
ag137
ag137
ag137
ag137
ag137
ag137
ag137
ag137
aS'/home/users/fsetti/HHggTauTau/coupling_scan/CMSSW_10_2_13/src/flashggFinalFit/files_systs/07Apr2022//ws_signal_2016/output_VBFH_M125_13TeV_pythia8_VBFH.root'
p138
aS'/home/users/fsetti/HHggTauTau/coupling_scan/CMSSW_10_2_13/src/flashggFinalFit/files_systs/07Apr2022//ws_signal_2016/output_VH_M125_13TeV_pythia8_VH.root'
p139
aS'/home/users/fsetti/HHggTauTau/coupling_scan/CMSSW_10_2_13/src/flashggFinalFit/files_systs/07Apr2022//ws_signal_2016/output_ggH_M125_13TeV_pythia8_ggH.root'
p140
aS'/home/users/fsetti/HHggTauTau/coupling_scan/CMSSW_10_2_13/src/flashggFinalFit/files_systs/07Apr2022//ws_signal_2016/output_ggHHkl0kt1_M125_13TeV_pythia8_ggHHkl0kt1.root'
p141
aS'/home/users/fsetti/HHggTauTau/coupling_scan/CMSSW_10_2_13/src/flashggFinalFit/files_systs/07Apr2022//ws_signal_2016/output_ggHHkl1kt1_M125_13TeV_pythia8_ggHHkl1kt1.root'
p142
aS'/home/users/fsetti/HHggTauTau/coupling_scan/CMSSW_10_2_13/src/flashggFinalFit/files_systs/07Apr2022//ws_signal_2016/output_ggHHkl2p45kt1_M125_13TeV_pythia8_ggHHkl2p45kt1.root'
p143
aS'/home/users/fsetti/HHggTauTau/coupling_scan/CMSSW_10_2_13/src/flashggFinalFit/files_systs/07Apr2022//ws_signal_2016/output_ggHHkl5kt1_M125_13TeV_pythia8_ggHHkl5kt1.root'
p144
aS'/home/users/fsetti/HHggTauTau/coupling_scan/CMSSW_10_2_13/src/flashggFinalFit/files_systs/07Apr2022//ws_signal_2016/output_ttH_M125_13TeV_pythia8_ttH.root'
p145
aS'/home/users/fsetti/HHggTauTau/coupling_scan/CMSSW_10_2_13/src/flashggFinalFit/files_systs/07Apr2022//ws_signal_2017/output_VBFH_M125_13TeV_pythia8_VBFH.root'
p146
aS'/home/users/fsetti/HHggTauTau/coupling_scan/CMSSW_10_2_13/src/flashggFinalFit/files_systs/07Apr2022//ws_signal_2017/output_VH_M125_13TeV_pythia8_VH.root'
p147
aS'/home/users/fsetti/HHggTauTau/coupling_scan/CMSSW_10_2_13/src/flashggFinalFit/files_systs/07Apr2022//ws_signal_2017/output_ggH_M125_13TeV_pythia8_ggH.root'
p148
aS'/home/users/fsetti/HHggTauTau/coupling_scan/CMSSW_10_2_13/src/flashggFinalFit/files_systs/07Apr2022//ws_signal_2017/output_ggHHkl0kt1_M125_13TeV_pythia8_ggHHkl0kt1.root'
p149
aS'/home/users/fsetti/HHggTauTau/coupling_scan/CMSSW_10_2_13/src/flashggFinalFit/files_systs/07Apr2022//ws_signal_2017/output_ggHHkl1kt1_M125_13TeV_pythia8_ggHHkl1kt1.root'
p150
aS'/home/users/fsetti/HHggTauTau/coupling_scan/CMSSW_10_2_13/src/flashggFinalFit/files_systs/07Apr2022//ws_signal_2017/output_ggHHkl2p45kt1_M125_13TeV_pythia8_ggHHkl2p45kt1.root'
p151
aS'/home/users/fsetti/HHggTauTau/coupling_scan/CMSSW_10_2_13/src/flashggFinalFit/files_systs/07Apr2022//ws_signal_2017/output_ggHHkl5kt1_M125_13TeV_pythia8_ggHHkl5kt1.root'
p152
aS'/home/users/fsetti/HHggTauTau/coupling_scan/CMSSW_10_2_13/src/flashggFinalFit/files_systs/07Apr2022//ws_signal_2017/output_ttH_M125_13TeV_pythia8_ttH.root'
p153
aS'/home/users/fsetti/HHggTauTau/coupling_scan/CMSSW_10_2_13/src/flashggFinalFit/files_systs/07Apr2022//ws_signal_2018/output_VBFH_M125_13TeV_pythia8_VBFH.root'
p154
aS'/home/users/fsetti/HHggTauTau/coupling_scan/CMSSW_10_2_13/src/flashggFinalFit/files_systs/07Apr2022//ws_signal_2018/output_VH_M125_13TeV_pythia8_VH.root'
p155
aS'/home/users/fsetti/HHggTauTau/coupling_scan/CMSSW_10_2_13/src/flashggFinalFit/files_systs/07Apr2022//ws_signal_2018/output_ggH_M125_13TeV_pythia8_ggH.root'
p156
aS'/home/users/fsetti/HHggTauTau/coupling_scan/CMSSW_10_2_13/src/flashggFinalFit/files_systs/07Apr2022//ws_signal_2018/output_ggHHkl0kt1_M125_13TeV_pythia8_ggHHkl0kt1.root'
p157
aS'/home/users/fsetti/HHggTauTau/coupling_scan/CMSSW_10_2_13/src/flashggFinalFit/files_systs/07Apr2022//ws_signal_2018/output_ggHHkl1kt1_M125_13TeV_pythia8_ggHHkl1kt1.root'
p158
aS'/home/users/fsetti/HHggTauTau/coupling_scan/CMSSW_10_2_13/src/flashggFinalFit/files_systs/07Apr2022//ws_signal_2018/output_ggHHkl2p45kt1_M125_13TeV_pythia8_ggHHkl2p45kt1.root'
p159
aS'/home/users/fsetti/HHggTauTau/coupling_scan/CMSSW_10_2_13/src/flashggFinalFit/files_systs/07Apr2022//ws_signal_2018/output_ggHHkl5kt1_M125_13TeV_pythia8_ggHHkl5kt1.root'
p160
aS'/home/users/fsetti/HHggTauTau/coupling_scan/CMSSW_10_2_13/src/flashggFinalFit/files_systs/07Apr2022//ws_signal_2018/output_ttH_M125_13TeV_pythia8_ttH.root'
p161
ag136
ag136
aS'VBFH_125_13TeV_SR2'
p162
aS'VH_125_13TeV_SR2'
p163
aS'ggH_125_13TeV_SR2'
p164
aS'ggHHkl0kt1_125_13TeV_SR2'
p165
aS'ggHHkl1kt1_125_13TeV_SR2'
p166
aS'ggHHkl2p45kt1_125_13TeV_SR2'
p167
aS'ggHHkl5kt1_125_13TeV_SR2'
p168
aS'ttH_125_13TeV_SR2'
p169
aS'VBFH_125_13TeV_SR2'
p170
aS'VH_125_13TeV_SR2'
p171
aS'ggH_125_13TeV_SR2'
p172
aS'ggHHkl0kt1_125_13TeV_SR2'
p173
aS'ggHHkl1kt1_125_13TeV_SR2'
p174
aS'ggHHkl2p45kt1_125_13TeV_SR2'
p175
aS'ggHHkl5kt1_125_13TeV_SR2'
p176
aS'ttH_125_13TeV_SR2'
p177
aS'VBFH_125_13TeV_SR2'
p178
aS'VH_125_13TeV_SR2'
p179
aS'ggH_125_13TeV_SR2'
p180
aS'ggHHkl0kt1_125_13TeV_SR2'
p181
aS'ggHHkl1kt1_125_13TeV_SR2'
p182
aS'ggHHkl2p45kt1_125_13TeV_SR2'
p183
aS'ggHHkl5kt1_125_13TeV_SR2'
p184
aS'ttH_125_13TeV_SR2'
p185
ag136
ag136
aS'./Models/signal/CMS-HGG_sigfit_packaged_SR2.root'
p186
aS'./Models/signal/CMS-HGG_sigfit_packaged_SR2.root'
p187
aS'./Models/signal/CMS-HGG_sigfit_packaged_SR2.root'
p188
aS'./Models/signal/CMS-HGG_sigfit_packaged_SR2.root'
p189
aS'./Models/signal/CMS-HGG_sigfit_packaged_SR2.root'
p190
aS'./Models/signal/CMS-HGG_sigfit_packaged_SR2.root'
p191
aS'./Models/signal/CMS-HGG_sigfit_packaged_SR2.root'
p192
aS'./Models/signal/CMS-HGG_sigfit_packaged_SR2.root'
p193
aS'./Models/signal/CMS-HGG_sigfit_packaged_SR2.root'
p194
aS'./Models/signal/CMS-HGG_sigfit_packaged_SR2.root'
p195
aS'./Models/signal/CMS-HGG_sigfit_packaged_SR2.root'
p196
aS'./Models/signal/CMS-HGG_sigfit_packaged_SR2.root'
p197
aS'./Models/signal/CMS-HGG_sigfit_packaged_SR2.root'
p198
aS'./Models/signal/CMS-HGG_sigfit_packaged_SR2.root'
p199
aS'./Models/signal/CMS-HGG_sigfit_packaged_SR2.root'
p200
aS'./Models/signal/CMS-HGG_sigfit_packaged_SR2.root'
p201
aS'./Models/signal/CMS-HGG_sigfit_packaged_SR2.root'
p202
aS'./Models/signal/CMS-HGG_sigfit_packaged_SR2.root'
p203
aS'./Models/signal/CMS-HGG_sigfit_packaged_SR2.root'
p204
aS'./Models/signal/CMS-HGG_sigfit_packaged_SR2.root'
p205
aS'./Models/signal/CMS-HGG_sigfit_packaged_SR2.root'
p206
aS'./Models/signal/CMS-HGG_sigfit_packaged_SR2.root'
p207
aS'./Models/signal/CMS-HGG_sigfit_packaged_SR2.root'
p208
aS'./Models/signal/CMS-HGG_sigfit_packaged_SR2.root'
p209
aS'./Models/background/CMS-HGG_multipdf_SR2.root'
p210
ag210
aS'wsig_13TeV:hggpdfsmrel_VBFH_2016_SR2_13TeV'
p211
aS'wsig_13TeV:hggpdfsmrel_VH_2016_SR2_13TeV'
p212
aS'wsig_13TeV:hggpdfsmrel_ggH_2016_SR2_13TeV'
p213
aS'wsig_13TeV:hggpdfsmrel_ggHHkl0kt1_2016_SR2_13TeV'
p214
aS'wsig_13TeV:hggpdfsmrel_ggHHkl1kt1_2016_SR2_13TeV'
p215
aS'wsig_13TeV:hggpdfsmrel_ggHHkl2p45kt1_2016_SR2_13TeV'
p216
aS'wsig_13TeV:hggpdfsmrel_ggHHkl5kt1_2016_SR2_13TeV'
p217
aS'wsig_13TeV:hggpdfsmrel_ttH_2016_SR2_13TeV'
p218
aS'wsig_13TeV:hggpdfsmrel_VBFH_2017_SR2_13TeV'
p219
aS'wsig_13TeV:hggpdfsmrel_VH_2017_SR2_13TeV'
p220
aS'wsig_13TeV:hggpdfsmrel_ggH_2017_SR2_13TeV'
p221
aS'wsig_13TeV:hggpdfsmrel_ggHHkl0kt1_2017_SR2_13TeV'
p222
aS'wsig_13TeV:hggpdfsmrel_ggHHkl1kt1_2017_SR2_13TeV'
p223
aS'wsig_13TeV:hggpdfsmrel_ggHHkl2p45kt1_2017_SR2_13TeV'
p224
aS'wsig_13TeV:hggpdfsmrel_ggHHkl5kt1_2017_SR2_13TeV'
p225
aS'wsig_13TeV:hggpdfsmrel_ttH_2017_SR2_13TeV'
p226
aS'wsig_13TeV:hggpdfsmrel_VBFH_2018_SR2_13TeV'
p227
aS'wsig_13TeV:hggpdfsmrel_VH_2018_SR2_13TeV'
p228
aS'wsig_13TeV:hggpdfsmrel_ggH_2018_SR2_13TeV'
p229
aS'wsig_13TeV:hggpdfsmrel_ggHHkl0kt1_2018_SR2_13TeV'
p230
aS'wsig_13TeV:hggpdfsmrel_ggHHkl1kt1_2018_SR2_13TeV'
p231
aS'wsig_13TeV:hggpdfsmrel_ggHHkl2p45kt1_2018_SR2_13TeV'
p232
aS'wsig_13TeV:hggpdfsmrel_ggHHkl5kt1_2018_SR2_13TeV'
p233
aS'wsig_13TeV:hggpdfsmrel_ttH_2018_SR2_13TeV'
p234
aS'multipdf:CMS_hgg_SR2_13TeV_bkgshape'
p235
aS'multipdf:roohist_data_mass_SR2'
p236
aI1000
aI1000
aI1000
aI1000
aI1000
aI1000
aI1000
aI1000
aI1000
aI1000
aI1000
aI1000
aI1000
aI1000
aI1000
aI1000
aI1000
aI1000
aI1000
aI1000
aI1000
aI1000
aI1000
aI1000
aF1.0
aI-1
aF0.028334046124417627
aF0.24746134245386414
aF0.055023074032459464
aF0.06558769750000876
aF0.02551914233614517
aF0.008449793298482777
aF0.036251824674629576
aF0.08878550123670126
aF0.029669176689712674
aF0.3258436939820452
aF0.09585964738870809
aF0.05172708817701564
aF0.02777678370407915
aF0.007818239699135228
aF0.042189516840506834
aF0.09004953027080696
aF0.04294716004075552
aF0.45603102282113994
aF0.15163858425540466
aF0.08741767100117497
aF0.04255873466067467
aF0.01095673211908081
aF0.06271342994624318
aF0.14030091821282056
ag136
ag136
aF2.9514186064764696e-05
aF0.0001519737833127604
aF0.00020323721047552275
aF0.0001726832771923306
aF2.7596882828067818e-08
aF1.5993229077419478e-06
aF9.314759998770716e-08
aF4.091152272749018e-05
aF6.686675121022511e-05
aF0.00020173852023664041
aF0.0009926770411168896
aF1.1103745655865051e-07
aF3.234661804270761e-08
aF7.069056183017005e-08
aF1.179393541081454e-07
aF4.404810810386048e-05
aF0.00014279476269530794
aF0.00042009287043511787
aF0.0017424702216212343
aF2.9149785910463366e-07
aF7.236633725874722e-08
aF7.287098293739626e-07
aF2.4854825638274974e-07
aF0.00010067589051258015
ag136
ag136
aF0.028334046124417627
aF0.24746134245386414
aF0.055023074032459464
aF0.06558769750000876
aF0.02551914233614517
aF0.008449793298482777
aF0.036251824674629576
aF0.08878550123670126
aF0.029669176689712674
aF0.3258436939820452
aF0.09585964738870809
aF0.05172708817701564
aF0.02777678370407915
aF0.007818239699135228
aF0.042189516840506834
aF0.09004953027080696
aF0.04294716004075552
aF0.45603102282113994
aF0.15163858425540466
aF0.08741767100117497
aF0.04255873466067467
aF0.01095673211908081
aF0.06271342994624318
aF0.14030091821282056
ag136
ag136
aF0.028136748485884006
aF0.24555482928717476
aF0.054602939956702734
aF0.0651249314017769
aF0.025330823162435425
aF0.008388809910098325
aF0.035996862190653046
aF0.08809301308824104
aF0.029135241094945162
aF0.31925983145482867
aF0.09408695334897997
aF0.050711157310290904
aF0.027229446166009082
aF0.007663698418974989
aF0.04138213336473245
aF0.08838616525136529
aF0.042185702780050134
aF0.4473241694720886
aF0.1492143160839453
aF0.08578501368133852
aF0.04176495574643489
aF0.010754075661037454
aF0.06157591857044059
aF0.1380166647926829
ag136
ag136
aF0.02805305289845641
aF0.24450009035916279
aF0.05437433850518691
aF0.06487649958748438
aF0.025224272965992223
aF0.008356877115693292
aF0.035849032542438965
aF0.0877152362825144
aF0.02900324407314995
aF0.3173471913550716
aF0.09364161667363571
aF0.05040631159026774
aF0.02706475542014786
aF0.007618413760635383
aF0.04114206263760477
aF0.08793968349122504
aF0.04203701403454962
aF0.44566837096978035
aF0.14876188671193327
aF0.08547515036261608
aF0.041614875152992864
aF0.01071537858311277
aF0.06136069775373304
aF0.13762420465914124
ag136
ag136
aF0.028319676173572655
aF0.24724493086897192
aF0.05499604368995033
aF0.06548839780436662
aF0.025477185365894797
aF0.008440008403691093
aF0.036141969670491596
aF0.08839822075535714
aF0.029643749746903265
aF0.32523403697314973
aF0.09581612870702444
aF0.051536890302936275
aF0.02769123201303718
aF0.007801672350366074
aF0.04198200755027939
aF0.08947671589299788
aF0.04290219080258341
aF0.45544285046915894
aF0.1518570476833477
aF0.08706696447329529
aF0.04241421659340358
aF0.010933702960044488
aF0.062338594369648836
aF0.13928161219911392
ag136
ag136
aF0.02828901564842203
aF0.24678787859111173
aF0.05486898058814361
aF0.06523217740978844
aF0.025371704346433748
aF0.008417063964381024
aF0.0358897320934684
aF0.0875451187639117
aF0.029615545914110683
aF0.32462290820713485
aF0.09590316607039176
aF0.05131382562890601
aF0.027585566075618635
aF0.007775745432146352
aF0.04172577199243287
aF0.08868055540763643
aF0.04284682514194377
aF0.45484146042273654
aF0.15203274700900898
aF0.08663908498339573
aF0.042240710284150024
aF0.010896749196316375
aF0.06188309304420279
aF0.13802890107504573
ag136
ag136
aF0.02836684132119983
aF0.2474115080410835
aF0.055048026835454796
aF0.06555959187242306
aF0.02550782430196137
aF0.00844424517708156
aF0.03622149723359237
aF0.08865750774183831
aF0.02970444017361904
aF0.3259836165980581
aF0.0958587515563405
aF0.05177857214236522
aF0.027799885099972305
aF0.007823520368537853
aF0.042241431718938634
aF0.09019282821662401
aF0.04294129242769795
aF0.455859473656355
aF0.15163858425540466
aF0.0873168804376007
aF0.042520263994720496
aF0.010949272979186173
aF0.06260142980592681
aF0.14010103972381444
ag136
ag136
aF0.02835962345391366
aF0.24736794110625798
aF0.05504277812411051
aF0.06552352816637161
aF0.0254927860087438
aF0.008439346833399
aF0.036186205954983494
aF0.08856430304563291
aF0.02969737444722898
aF0.325900516709832
aF0.0958394488689252
aF0.051745640309515784
aF0.02778462127477253
aF0.007819988008801251
aF0.04220510365688192
aF0.09009126894819545
aF0.042934951359572995
aF0.4557839277070713
aF0.15163858425540466
aF0.08727370509846454
aF0.042502966368534505
aF0.01094624939007576
aF0.06255693526503053
aF0.13999817884908483
ag136
ag136
aF0.028367877898737955
aF0.24747625335021847
aF0.05503600963189926
aF0.06562129358013068
aF0.025533002536138365
aF0.008453164891651448
aF0.036284305533582036
aF0.08884086749110373
aF0.029704899191515706
aF0.32609905907796866
aF0.095894999354596
aF0.05183322426489318
aF0.0278247353754063
aF0.007829154521735058
aF0.04230461621251279
aF0.09035804724128912
aF0.042946707535647416
aF0.4560450188257794
aF0.15163858425540466
aF0.08742768459365263
aF0.042563728765286836
aF0.01095707879080792
aF0.06272138948999473
aF0.14033949991207018
ag136
ag136
aF0.028358586738015213
aF0.24730344694648418
aF0.055054766733168434
aF0.06546186063912654
aF0.02546762197175302
aF0.008430439019726945
aF0.03612342970400675
aF0.0883813443982068
aF0.02969691528502927
aF0.32578539455222544
aF0.09580320130432446
aF0.051691019439152164
aF0.02775978741726739
aF0.007814356783246955
aF0.042141950974711226
aF0.08992617689861764
aF0.04292951414998718
aF0.45559854153882123
aF0.15163858425540466
aF0.08716296286592674
aF0.0424595261264802
aF0.010938445967856836
aF0.062437030308757996
aF0.1397601064106056
ag136
ag136
aF0.028112900645088503
aF0.245546107834754
aF0.05437176004165189
aF0.06492122541058001
aF0.02524383911477098
aF0.008370328852284434
aF0.03582951759263217
aF0.08801569788467496
aF0.029378901627950465
aF0.32184208837912864
aF0.09537008743180303
aF0.05095360172029303
aF0.02737011102451335
aF0.007712326354059938
aF0.04152072606395542
aF0.0889568003150121
aF0.04243284136883332
aF0.45084311257770365
aF0.1498720867617092
aF0.08636985934801218
aF0.04206935066765846
aF0.010824674035432351
aF0.06191039677586698
aF0.13879838963088656
ag136
ag136
aF0.028003541185902814
aF0.24454251153927123
aF0.05410574619992272
aF0.06464682464342883
aF0.025133886587715353
aF0.008334516117596828
aF0.03567443837318623
aF0.08767207755424136
aF0.029245164624333263
aF0.320065476905774
aF0.09489218464083723
aF0.05068336283819577
aF0.027225166155211217
aF0.007671610758668789
aF0.04130072266707526
aF0.08852409814164995
aF0.04222870417748134
aF0.448767011362068
aF0.14919561655952734
aF0.08597241280063977
aF0.04187763939873327
aF0.010774292065649609
aF0.061628979702225556
aF0.1381477402050408
ag136
ag136
aF0.028937137804863313
aF0.24746134245386406
aF0.05656599647388122
aF0.06556625017629296
aF0.025510763040835525
aF0.008445532632125025
aF0.03625633937804855
aF0.08908317284956378
aF0.03021635469418103
aF0.3248238783865402
aF0.0913371920544895
aF0.051694377205439145
aF0.02777458331505345
aF0.007810540454041374
aF0.04220658008168668
aF0.09001325893572022
aF0.0414818456846527
aF0.45712867758401327
aF0.15163858425540463
aF0.08744410438433052
aF0.042574145015775625
aF0.01095824340154244
aF0.06272309381143687
aF0.13953568424953539
ag136
ag136
aF0.028334046124417624
aF0.248154194537059
aF0.055023074032459464
aF0.06556635722652202
aF0.025510272739236794
aF0.008449321785711868
aF0.03626983299671367
aF0.08992878972144851
aF0.029669176689712674
aF0.3269111413617013
aF0.09585964738870809
aF0.05176339092685647
aF0.027772172132084536
aF0.007817401793865645
aF0.042174319513474286
aF0.09030878019326996
aF0.04294716004075552
aF0.45396185628468316
aF0.14636550629895156
aF0.08740544522599797
aF0.042580865174756226
aF0.010959995527264666
aF0.06268165287315652
aF0.13995419068197337
ag136
ag136
aF0.028334046124417624
aF0.24875608192457907
aF0.05847442136444202
aF0.06555870235705133
aF0.02550961243264601
aF0.008448430344878492
aF0.03623770688388793
aF0.08930783942464635
aF0.029669176689712674
aF0.325241515121252
aF0.0913371920544895
aF0.05171496254431976
aF0.027793745177326225
aF0.007816042857584323
aF0.04214600461635424
aF0.08858865300840574
aF0.042079305833267716
aF0.45393668637567863
aF0.14602582718891205
aF0.08737165096625807
aF0.042558384815725096
aF0.010961537634119266
aF0.062465842800900194
aF0.13956385459737572
ag136
ag136
aF0.02838082054456114
aF0.2474087492430909
aF0.05656599647388122
aF0.06559515754919014
aF0.02551448860437503
aF0.008441081439165103
aF0.03633215725097193
aF0.0925891861409086
aF0.02964563587429654
aF0.3258621398552465
aF0.09585964738870809
aF0.05169948421765332
aF0.027745197286623637
aF0.0078131989014444
aF0.04221438127791418
aF0.09104307998395889
aF0.04062163781173879
aF0.45477348540840407
aF0.14636550629895156
aF0.08739517812505507
aF0.04258416302912293
aF0.010888707972948216
aF0.06293609840845639
aF0.14248439177278038
ag136
ag136
aF0.029387119292476345
aF0.24965978222237079
aF0.05566377751739018
aF0.06556943691119657
aF0.025529354907052597
aF0.008441508296241032
aF0.036233768475402245
aF0.08948749415288236
aF0.03063688813379617
aF0.32515507734544175
aF0.1043043559692352
aF0.05180618961721693
aF0.02780528436538345
aF0.007860552898927215
aF0.04220629983797892
aF0.08941372229918777
aF0.04575397589873076
aF0.4476106478422245
aF0.1346920693944978
aF0.08748517775022696
aF0.04261912159863738
aF0.010985132821325657
aF0.06279695985512136
aF0.14179528961970175
ag136
ag136
aF0.026721357587601646
aF0.24651325068521476
aF0.05495688854152754
aF0.06560909191934455
aF0.025517388040040695
aF0.0072087330994689315
aF0.03618327654875667
aF0.0857792633033406
aF0.02820346798707727
aF0.32641502876957795
aF0.0996316425363419
aF0.0516907120390404
aF0.02780262939859249
aF0.007817206856221648
aF0.04220584495988999
aF0.09032249188051639
aF0.044519095353123546
aF0.45306763983954246
aF0.14613360029461667
aF0.0874140565508296
aF0.042537022083912295
aF0.010698584765655342
aF0.06273357261097105
aF0.13854093820174831
ag136
ag136
aF0.030717199286207846
aF0.2486499418478573
aF0.06351839536164161
aF0.06549882415621627
aF0.025565932908280763
aF0.008430576205423637
aF0.03608174561663545
aF0.0883267717555076
aF0.03304169598727068
aF0.3334901721030792
aF0.10780606805014259
aF0.05174532884804322
aF0.02776865486957124
aF0.007718187303227609
aF0.04217461049914608
aF0.08983915392319472
aF0.04391317207581635
aF0.4493586179220257
aF0.1350099210831011
aF0.08717307689499608
aF0.042576821617642764
aF0.010938788125745145
aF0.0627401509812643
aF0.13677064879727147
ag136
ag136
aF0.03100875097115743
aF0.25092224951055164
aF0.05108817195972521
aF0.06564148014373776
aF0.025493928357807435
aF0.007216488449580849
aF0.036303976749937496
aF0.08870280165213028
aF0.033259248765859124
aF0.32417616047521025
aF0.10626480863310438
aF0.05187498591140533
aF0.02780172268143541
aF0.0078065835560474205
aF0.042273305165174864
aF0.0902475625836419
aF0.051327905221377916
aF0.45218305556584076
aF0.15113723427580614
aF0.08752531736137861
aF0.04257713915154943
aF0.010844084242927701
aF0.06273623920941969
aF0.14168204033941573
ag136
ag136
aF0.03610681059437088
aF0.2598122119888463
aF0.056247257010815205
aF0.06581992664999732
aF0.025563802971203312
aF0.008468536178745462
aF0.03635962104230181
aF0.0917586879472945
aF0.03751784624311973
aF0.32968514304366975
aF0.10167389750261074
aF0.0518177174095264
aF0.027851635243048564
aF0.007887883502846377
aF0.0424318913869091
aF0.0912340384186312
aF0.04976070773038727
aF0.45677445051805904
aF0.17953253423861026
aF0.08773969430888369
aF0.04267360161666989
aF0.010711818645144415
aF0.06304485835096407
aF0.1383953628604947
ag136
ag136
aF0.02605525537531252
aF0.2495650474347361
aF0.057552453397846114
aF0.06542826611497492
aF0.025561548392985613
aF0.0072911747786371
aF0.036171352665671216
aF0.08878969526056828
aF0.02752502666601597
aF0.3298300639907073
aF0.10778819492223804
aF0.05188109812841149
aF0.027686730585901365
aF0.0076034410350790576
aF0.04227343165123259
aF0.09191666843257038
aF0.04140536762004164
aF0.4528335363644994
aF0.15161081004238
aF0.08752840550823586
aF0.04245951164500451
aF0.010829483411875633
aF0.06267194953866541
aF0.1398129158021997
ag136
ag136
aF0.028334046124417624
aF0.24746134245386406
aF0.055023074032459464
aF0.06558280973244231
aF0.025521816650638556
aF0.008449538780216322
aF0.0362517101014239
aF0.08849850771590136
aF0.029669176689712674
aF0.32584369398204527
aF0.09585964738870809
aF0.05172971241131278
aF0.02777655170503399
aF0.007817990316240434
aF0.04219495876241641
aF0.09004953027080678
aF0.04294716004075552
aF0.45603102282114
aF0.15163858425540463
aF0.08741052229378293
aF0.04255773598100288
aF0.010956768722358453
aF0.06271093314683487
aF0.14006896675050787
ag136
ag136
aF0.028334046124417624
aF0.24746134245386406
aF0.055023074032459464
aF0.06558725773662046
aF0.02551571229396276
aF0.008448962787964224
aF0.03625145407750606
aF0.08878550123670131
aF0.029669176689712674
aF0.32584369398204527
aF0.09585964738870809
aF0.05172444226970255
aF0.027776887592869493
aF0.007817405187318514
aF0.042194570704370674
aF0.09020136483374887
aF0.04294716004075552
aF0.4556437749170298
aF0.15163858425540463
aF0.08741258191281391
aF0.0425588735632393
aF0.010956115925335389
aF0.06271877020058858
aF0.13985642044731708
ag136
ag136
aF0.028334046124417624
aF0.24807110361091156
aF0.055023074032459464
aF0.06563192312810505
aF0.025560228942405595
aF0.008448220428097519
aF0.03628127459797552
aF0.08878550123670131
aF0.029669176689712674
aF0.32747113777582193
aF0.09585964738870809
aF0.0518097635069049
aF0.02780271927466815
aF0.007827431829086271
aF0.042234297230845666
aF0.09019745012564463
aF0.04294716004075552
aF0.45655463449983624
aF0.15163858425540463
aF0.08748463402502892
aF0.042607286928548795
aF0.01096100845043951
aF0.06274175554703151
aF0.1400643705600669
ag136
ag136
aF0.028334046124417624
aF0.24856357218680303
aF0.055023074032459464
aF0.06552320712809008
aF0.02547994620334426
aF0.00843381804655378
aF0.03622017521468217
aF0.0890776206338326
aF0.029669176689712674
aF0.3248154924457888
aF0.09585964738870809
aF0.05162104672117921
aF0.027738770289204125
aF0.007801840804877417
aF0.04212588425653141
aF0.08943828517013974
aF0.04294716004075552
aF0.4554335820519666
aF0.15163858425540463
aF0.08729889958041684
aF0.042501402183164574
aF0.010688239633841003
aF0.06264035501431744
aF0.13988519391708215
ag136
ag136
atp237
ba(lp238
g15
(g16
(dp239
g18
g19
(g20
(I0
tp240
g22
tp241
Rp242
(I1
(I38
tp243
g29
I00
(lp244
g33
ag34
ag35
ag36
ag37
ag38
ag39
ag40
ag41
ag42
ag43
ag44
ag45
ag46
ag47
ag48
ag49
ag50
ag51
ag52
ag53
ag54
ag55
ag56
ag57
ag58
ag59
ag60
ag61
ag62
ag63
ag64
ag65
ag66
ag67
ag68
ag69
ag70
atp245
bsg72
Nstp246
Rp247
a(dp248
S'0.14.1'
p249
(dp250
S'axes'
p251
g14
sS'blocks'
p252
(lp253
(dp254
S'mgr_locs'
p255
c__builtin__
slice
p256
(I0
I38
I1
tp257
Rp258
sS'values'
p259
g93
sasstp260
bsb.